---
triple:          'arm64-apple-darwin'
binary-path:     main_debug
relocations:
  - { offsetInCU: 0x5C, offset: 0x5C, size: 0x8, addend: 0x0, symName: __ZNSt3__1L19piecewise_constructE, symObjAddr: 0x11915, symBinAddr: 0x1000134AD, symSize: 0x0 }
  - { offsetInCU: 0x14819, offset: 0x14819, size: 0x8, addend: 0x0, symName: __ZNSt3__17advanceB7v160006IPN8workflow11requirementEllvEEvRT_T0_, symObjAddr: 0x9438, symBinAddr: 0x10000AA00, symSize: 0x50 }
  - { offsetInCU: 0x169BA, offset: 0x169BA, size: 0x8, addend: 0x0, symName: __ZNSt3__17advanceB7v160006IPKN8workflow11requirementEmmvEEvRT_T0_, symObjAddr: 0xA8A8, symBinAddr: 0x10000BE70, symSize: 0x50 }
  - { offsetInCU: 0x16F9D, offset: 0x16F9D, size: 0x8, addend: 0x0, symName: __ZNSt3__17advanceB7v160006IPN8workflow11requirementEmmvEEvRT_T0_, symObjAddr: 0xC754, symBinAddr: 0x10000DD1C, symSize: 0x50 }
  - { offsetInCU: 0x17008, offset: 0x17008, size: 0x8, addend: 0x0, symName: __ZNSt3__124__put_character_sequenceB7v160006IcNS_11char_traitsIcEEEERNS_13basic_ostreamIT_T0_EES7_PKS4_m, symObjAddr: 0xD018, symBinAddr: 0x10000E5E0, symSize: 0x1EC }
  - { offsetInCU: 0x175C7, offset: 0x175C7, size: 0x8, addend: 0x0, symName: __ZNSt3__17advanceB7v160006IPillvEEvRT_T0_, symObjAddr: 0x107B4, symBinAddr: 0x100011D7C, symSize: 0x50 }
  - { offsetInCU: 0x19DE3, offset: 0x19DE3, size: 0x8, addend: 0x0, symName: __ZNSt3__17getlineB7v160006IcNS_11char_traitsIcEENS_9allocatorIcEEEERNS_13basic_istreamIT_T0_EES9_RNS_12basic_stringIS6_S7_T1_EE, symObjAddr: 0x4C4, symBinAddr: 0x100001A8C, symSize: 0x5C }
  - { offsetInCU: 0x19E3B, offset: 0x19E3B, size: 0x8, addend: 0x0, symName: __ZNSt3__1lsB7v160006INS_11char_traitsIcEEEERNS_13basic_ostreamIcT_EES6_PKc, symObjAddr: 0x12DC, symBinAddr: 0x1000028A4, symSize: 0x48 }
  - { offsetInCU: 0x19E81, offset: 0x19E81, size: 0x8, addend: 0x0, symName: __ZNSt3__14endlB7v160006IcNS_11char_traitsIcEEEERNS_13basic_ostreamIT_T0_EES7_, symObjAddr: 0x1350, symBinAddr: 0x100002918, symSize: 0x58 }
  - { offsetInCU: 0x19EC1, offset: 0x19EC1, size: 0x8, addend: 0x0, symName: __ZNSt3__119__debug_db_insert_cB7v160006INS_12basic_stringIcNS_11char_traitsIcEENS_9allocatorIcEEEEEEvPT_, symObjAddr: 0x14B0, symBinAddr: 0x100002A78, symSize: 0x10 }
  - { offsetInCU: 0x19EF2, offset: 0x19EF2, size: 0x8, addend: 0x0, symName: __ZNSt3__119__debug_db_insert_cB7v160006INS_13unordered_mapINS_12basic_stringIcNS_11char_traitsIcEENS_9allocatorIcEEEEmNS_4hashIS7_EENS_8equal_toIS7_EENS5_INS_4pairIKS7_mEEEEEEEEvPT_, symObjAddr: 0x18D8, symBinAddr: 0x100002EA0, symSize: 0x10 }
  - { offsetInCU: 0x19F23, offset: 0x19F23, size: 0x8, addend: 0x0, symName: __ZNSt3__119__debug_db_insert_cB7v160006INS_13unordered_mapIm8workflowNS_4hashImEENS_8equal_toImEENS_9allocatorINS_4pairIKmS2_EEEEEEEEvPT_, symObjAddr: 0x1F44, symBinAddr: 0x10000350C, symSize: 0x10 }
  - { offsetInCU: 0x19F8B, offset: 0x19F8B, size: 0x8, addend: 0x0, symName: __ZNSt3__116forward_as_tupleB7v160006IJNS_12basic_stringIcNS_11char_traitsIcEENS_9allocatorIcEEEEEEENS_5tupleIJDpOT_EEESA_, symObjAddr: 0x29D0, symBinAddr: 0x100003F98, symSize: 0x2C }
  - { offsetInCU: 0x19FC4, offset: 0x19FC4, size: 0x8, addend: 0x0, symName: __ZNSt3__116forward_as_tupleB7v160006IJEEENS_5tupleIJDpOT_EEES4_, symObjAddr: 0x29FC, symBinAddr: 0x100003FC4, symSize: 0x4 }
  - { offsetInCU: 0x19FE8, offset: 0x19FE8, size: 0x8, addend: 0x0, symName: __ZNSt3__116__constrain_hashB7v160006Emm, symObjAddr: 0x2AD0, symBinAddr: 0x100004098, symSize: 0x98 }
  - { offsetInCU: 0x1A022, offset: 0x1A022, size: 0x8, addend: 0x0, symName: __ZNSt3__13maxB7v160006ImEERKT_S3_S3_, symObjAddr: 0x2E14, symBinAddr: 0x1000043DC, symSize: 0x2C }
  - { offsetInCU: 0x1A065, offset: 0x1A065, size: 0x8, addend: 0x0, symName: __ZNSt3__116__is_hash_power2B7v160006Em, symObjAddr: 0x2E40, symBinAddr: 0x100004408, symSize: 0x50 }
  - { offsetInCU: 0x1A091, offset: 0x1A091, size: 0x8, addend: 0x0, symName: __ZNSt3__116__do_string_hashB7v160006IPKcEEmT_S3_, symObjAddr: 0x30C4, symBinAddr: 0x10000468C, symSize: 0x3C }
  - { offsetInCU: 0x1A0D7, offset: 0x1A0D7, size: 0x8, addend: 0x0, symName: __ZNSt3__110__loadwordB7v160006ImEET_PKv, symObjAddr: 0x3B34, symBinAddr: 0x1000050FC, symSize: 0x20 }
  - { offsetInCU: 0x1A11A, offset: 0x1A11A, size: 0x8, addend: 0x0, symName: __ZNSt3__14swapB7v160006ImEENS_9enable_ifIXaasr21is_move_constructibleIT_EE5valuesr18is_move_assignableIS2_EE5valueEvE4typeERS2_S5_, symObjAddr: 0x3CF0, symBinAddr: 0x1000052B8, symSize: 0x3C }
  - { offsetInCU: 0x1A16B, offset: 0x1A16B, size: 0x8, addend: 0x0, symName: __ZNSt3__110__loadwordB7v160006IjEET_PKv, symObjAddr: 0x3D80, symBinAddr: 0x100005348, symSize: 0x20 }
  - { offsetInCU: 0x1A1AE, offset: 0x1A1AE, size: 0x8, addend: 0x0, symName: __ZNSt3__112__to_addressB7v160006IKcEEPT_S3_, symObjAddr: 0x3EE8, symBinAddr: 0x1000054B0, symSize: 0x14 }
  - { offsetInCU: 0x1A216, offset: 0x1A216, size: 0x8, addend: 0x0, symName: __ZNSt3__1eqB7v160006INS_9allocatorIcEEEEbRKNS_12basic_stringIcNS_11char_traitsIcEET_EES9_, symObjAddr: 0x4208, symBinAddr: 0x1000057D0, symSize: 0x148 }
  - { offsetInCU: 0x1A289, offset: 0x1A289, size: 0x8, addend: 0x0, symName: __ZNSt3__118__constexpr_memcmpB7v160006IcEEiPKT_S3_m, symObjAddr: 0x43BC, symBinAddr: 0x100005984, symSize: 0x34 }
  - { offsetInCU: 0x1A2DA, offset: 0x1A2DA, size: 0x8, addend: 0x0, symName: __ZNSt3__17launderB7v160006IKNS_4pairIKNS_12basic_stringIcNS_11char_traitsIcEENS_9allocatorIcEEEEmEEEEPT_SC_, symObjAddr: 0x43F0, symBinAddr: 0x1000059B8, symSize: 0x24 }
  - { offsetInCU: 0x1A311, offset: 0x1A311, size: 0x8, addend: 0x0, symName: __ZNSt3__19__launderB7v160006IKNS_4pairIKNS_12basic_stringIcNS_11char_traitsIcEENS_9allocatorIcEEEEmEEEEPT_SC_, symObjAddr: 0x4414, symBinAddr: 0x1000059DC, symSize: 0x14 }
  - { offsetInCU: 0x1A399, offset: 0x1A399, size: 0x8, addend: 0x0, symName: __ZNSt3__117__libcpp_allocateB7v160006Emm, symObjAddr: 0x468C, symBinAddr: 0x100005C54, symSize: 0x60 }
  - { offsetInCU: 0x1A3F3, offset: 0x1A3F3, size: 0x8, addend: 0x0, symName: __ZNSt3__124__is_overaligned_for_newB7v160006Em, symObjAddr: 0x4708, symBinAddr: 0x100005CD0, symSize: 0x20 }
  - { offsetInCU: 0x1A421, offset: 0x1A421, size: 0x8, addend: 0x0, symName: __ZNSt3__121__libcpp_operator_newB7v160006IJmSt11align_val_tEEEPvDpT_, symObjAddr: 0x4728, symBinAddr: 0x100005CF0, symSize: 0x2C }
  - { offsetInCU: 0x1A46E, offset: 0x1A46E, size: 0x8, addend: 0x0, symName: __ZNSt3__121__libcpp_operator_newB7v160006IJmEEEPvDpT_, symObjAddr: 0x4754, symBinAddr: 0x100005D1C, symSize: 0x24 }
  - { offsetInCU: 0x1A4CC, offset: 0x1A4CC, size: 0x8, addend: 0x0, symName: __ZNSt3__112construct_atB7v160006INS_4pairIKNS_12basic_stringIcNS_11char_traitsIcEENS_9allocatorIcEEEEmEEJRKNS_21piecewise_construct_tENS_5tupleIJOS7_EEENSD_IJEEEEPS9_EEPT_SJ_DpOT0_, symObjAddr: 0x48C4, symBinAddr: 0x100005E8C, symSize: 0x50 }
  - { offsetInCU: 0x1A56D, offset: 0x1A56D, size: 0x8, addend: 0x0, symName: __ZNSt3__13getB7v160006ILm0EJONS_12basic_stringIcNS_11char_traitsIcEENS_9allocatorIcEEEEEEERNS_13tuple_elementIXT_ENS_5tupleIJDpT0_EEEE4typeERSC_, symObjAddr: 0x49DC, symBinAddr: 0x100005FA4, symSize: 0x24 }
  - { offsetInCU: 0x1A5B0, offset: 0x1A5B0, size: 0x8, addend: 0x0, symName: __ZNSt3__115__debug_db_swapB7v160006INS_12basic_stringIcNS_11char_traitsIcEENS_9allocatorIcEEEEEEvPT_S8_, symObjAddr: 0x4ACC, symBinAddr: 0x100006094, symSize: 0x14 }
  - { offsetInCU: 0x1A5EF, offset: 0x1A5EF, size: 0x8, addend: 0x0, symName: __ZNSt3__116__next_hash_pow2B7v160006Em, symObjAddr: 0x4FC4, symBinAddr: 0x10000658C, symSize: 0x6C }
  - { offsetInCU: 0x1A61B, offset: 0x1A61B, size: 0x8, addend: 0x0, symName: __ZNSt3__125__debug_db_invalidate_allB7v160006INS_12__hash_tableINS_17__hash_value_typeINS_12basic_stringIcNS_11char_traitsIcEENS_9allocatorIcEEEEmEENS_22__unordered_map_hasherIS8_S9_NS_4hashIS8_EENS_8equal_toIS8_EELb1EEENS_21__unordered_map_equalIS8_S9_SE_SC_Lb1EEENS6_IS9_EEEEEEvPT_, symObjAddr: 0x5030, symBinAddr: 0x1000065F8, symSize: 0x10 }
  - { offsetInCU: 0x1A668, offset: 0x1A668, size: 0x8, addend: 0x0, symName: __ZNSt3__119__libcpp_deallocateB7v160006EPvmm, symObjAddr: 0x52C8, symBinAddr: 0x100006890, symSize: 0x60 }
  - { offsetInCU: 0x1A6CD, offset: 0x1A6CD, size: 0x8, addend: 0x0, symName: __ZNSt3__127__do_deallocate_handle_sizeB7v160006IJSt11align_val_tEEEvPvmDpT_, symObjAddr: 0x5328, symBinAddr: 0x1000068F0, symSize: 0x30 }
  - { offsetInCU: 0x1A720, offset: 0x1A720, size: 0x8, addend: 0x0, symName: __ZNSt3__127__do_deallocate_handle_sizeB7v160006IJEEEvPvmDpT_, symObjAddr: 0x5358, symBinAddr: 0x100006920, symSize: 0x28 }
  - { offsetInCU: 0x1A75E, offset: 0x1A75E, size: 0x8, addend: 0x0, symName: __ZNSt3__124__libcpp_operator_deleteB7v160006IJPvSt11align_val_tEEEvDpT_, symObjAddr: 0x5380, symBinAddr: 0x100006948, symSize: 0x2C }
  - { offsetInCU: 0x1A7A7, offset: 0x1A7A7, size: 0x8, addend: 0x0, symName: __ZNSt3__124__libcpp_operator_deleteB7v160006IJPvEEEvDpT_, symObjAddr: 0x53AC, symBinAddr: 0x100006974, symSize: 0x24 }
  - { offsetInCU: 0x1A7DC, offset: 0x1A7DC, size: 0x8, addend: 0x0, symName: __ZNSt3__112__libcpp_clzB7v160006Em, symObjAddr: 0x5474, symBinAddr: 0x100006A3C, symSize: 0x1C }
  - { offsetInCU: 0x1A808, offset: 0x1A808, size: 0x8, addend: 0x0, symName: __ZNSt3__13maxB7v160006ImNS_6__lessImmEEEERKT_S5_S5_T0_, symObjAddr: 0x5490, symBinAddr: 0x100006A58, symSize: 0x54 }
  - { offsetInCU: 0x1A89D, offset: 0x1A89D, size: 0x8, addend: 0x0, symName: __ZNSt3__110destroy_atB7v160006INS_4pairIKNS_12basic_stringIcNS_11char_traitsIcEENS_9allocatorIcEEEEmEELi0EEEvPT_, symObjAddr: 0x5738, symBinAddr: 0x100006D00, symSize: 0x24 }
  - { offsetInCU: 0x1A8D4, offset: 0x1A8D4, size: 0x8, addend: 0x0, symName: __ZNSt3__112__destroy_atB7v160006INS_4pairIKNS_12basic_stringIcNS_11char_traitsIcEENS_9allocatorIcEEEEmEELi0EEEvPT_, symObjAddr: 0x575C, symBinAddr: 0x100006D24, symSize: 0x24 }
  - { offsetInCU: 0x1A962, offset: 0x1A962, size: 0x8, addend: 0x0, symName: __ZNSt3__17launderB7v160006INS_4pairIKNS_12basic_stringIcNS_11char_traitsIcEENS_9allocatorIcEEEEmEEEEPT_SB_, symObjAddr: 0x597C, symBinAddr: 0x100006F44, symSize: 0x24 }
  - { offsetInCU: 0x1A999, offset: 0x1A999, size: 0x8, addend: 0x0, symName: __ZNSt3__19__launderB7v160006INS_4pairIKNS_12basic_stringIcNS_11char_traitsIcEENS_9allocatorIcEEEEmEEEEPT_SB_, symObjAddr: 0x59A0, symBinAddr: 0x100006F68, symSize: 0x14 }
  - { offsetInCU: 0x1A9D0, offset: 0x1A9D0, size: 0x8, addend: 0x0, symName: __ZNSt3__118__constexpr_strlenB7v160006EPKc, symObjAddr: 0x5A48, symBinAddr: 0x100007010, symSize: 0x24 }
  - { offsetInCU: 0x1A9FC, offset: 0x1A9FC, size: 0x8, addend: 0x0, symName: __ZNSt3__118__debug_db_erase_cB7v160006INS_12__hash_tableINS_17__hash_value_typeIm8workflowEENS_22__unordered_map_hasherImS4_NS_4hashImEENS_8equal_toImEELb1EEENS_21__unordered_map_equalImS4_S9_S7_Lb1EEENS_9allocatorIS4_EEEEEEvPT_, symObjAddr: 0x5BE8, symBinAddr: 0x1000071B0, symSize: 0x10 }
  - { offsetInCU: 0x1AA60, offset: 0x1AA60, size: 0x8, addend: 0x0, symName: __ZNSt3__110destroy_atB7v160006INS_4pairIKm8workflowEELi0EEEvPT_, symObjAddr: 0x5D3C, symBinAddr: 0x100007304, symSize: 0x24 }
  - { offsetInCU: 0x1AA97, offset: 0x1AA97, size: 0x8, addend: 0x0, symName: __ZNSt3__112__destroy_atB7v160006INS_4pairIKm8workflowEELi0EEEvPT_, symObjAddr: 0x5D60, symBinAddr: 0x100007328, symSize: 0x24 }
  - { offsetInCU: 0x1AACE, offset: 0x1AACE, size: 0x8, addend: 0x0, symName: __ZNSt3__118__debug_db_erase_cB7v160006INS_6vectorIN8workflow11requirementENS_9allocatorIS3_EEEEEEvPT_, symObjAddr: 0x605C, symBinAddr: 0x100007624, symSize: 0x10 }
  - { offsetInCU: 0x1AAFF, offset: 0x1AAFF, size: 0x8, addend: 0x0, symName: __ZNSt3__112__to_addressB7v160006IN8workflow11requirementEEEPT_S4_, symObjAddr: 0x61A0, symBinAddr: 0x100007768, symSize: 0x14 }
  - { offsetInCU: 0x1AB34, offset: 0x1AB34, size: 0x8, addend: 0x0, symName: __ZNSt3__110destroy_atB7v160006IN8workflow11requirementELi0EEEvPT_, symObjAddr: 0x6268, symBinAddr: 0x100007830, symSize: 0x24 }
  - { offsetInCU: 0x1AB6B, offset: 0x1AB6B, size: 0x8, addend: 0x0, symName: __ZNSt3__112__destroy_atB7v160006IN8workflow11requirementELi0EEEvPT_, symObjAddr: 0x628C, symBinAddr: 0x100007854, symSize: 0x10 }
  - { offsetInCU: 0x1ABA2, offset: 0x1ABA2, size: 0x8, addend: 0x0, symName: __ZNSt3__17launderB7v160006INS_4pairIKm8workflowEEEEPT_S6_, symObjAddr: 0x6398, symBinAddr: 0x100007960, symSize: 0x24 }
  - { offsetInCU: 0x1ABD9, offset: 0x1ABD9, size: 0x8, addend: 0x0, symName: __ZNSt3__19__launderB7v160006INS_4pairIKm8workflowEEEEPT_S6_, symObjAddr: 0x63BC, symBinAddr: 0x100007984, symSize: 0x14 }
  - { offsetInCU: 0x1AC10, offset: 0x1AC10, size: 0x8, addend: 0x0, symName: __ZNSt3__118__debug_db_erase_cB7v160006INS_12__hash_tableINS_17__hash_value_typeINS_12basic_stringIcNS_11char_traitsIcEENS_9allocatorIcEEEEmEENS_22__unordered_map_hasherIS8_S9_NS_4hashIS8_EENS_8equal_toIS8_EELb1EEENS_21__unordered_map_equalIS8_S9_SE_SC_Lb1EEENS6_IS9_EEEEEEvPT_, symObjAddr: 0x6800, symBinAddr: 0x100007DC8, symSize: 0x10 }
  - { offsetInCU: 0x1AC41, offset: 0x1AC41, size: 0x8, addend: 0x0, symName: __ZNSt3__19make_pairB7v160006IRNS_12basic_stringIcNS_11char_traitsIcEENS_9allocatorIcEEEERNS_6vectorIN8workflow11requirementENS4_ISA_EEEEEENS_4pairINS_18__unwrap_ref_decayIT_E4typeENSF_IT0_E4typeEEEOSG_OSJ_, symObjAddr: 0x71F0, symBinAddr: 0x1000087B8, symSize: 0x40 }
  - { offsetInCU: 0x1AC90, offset: 0x1AC90, size: 0x8, addend: 0x0, symName: __ZNSt3__125__debug_db_invalidate_allB7v160006INS_12basic_stringIcNS_11char_traitsIcEENS_9allocatorIcEEEEEEvPT_, symObjAddr: 0x72E8, symBinAddr: 0x1000088B0, symSize: 0x10 }
  - { offsetInCU: 0x1ACC1, offset: 0x1ACC1, size: 0x8, addend: 0x0, symName: __ZNSt3__119__debug_db_insert_cB7v160006INS_6vectorIN8workflow11requirementENS_9allocatorIS3_EEEEEEvPT_, symObjAddr: 0x7460, symBinAddr: 0x100008A28, symSize: 0x10 }
  - { offsetInCU: 0x1AD17, offset: 0x1AD17, size: 0x8, addend: 0x0, symName: __ZNSt3__112construct_atB7v160006IN8workflow11requirementEJS2_EPS2_EEPT_S5_DpOT0_, symObjAddr: 0x7808, symBinAddr: 0x100008DD0, symSize: 0x2C }
  - { offsetInCU: 0x1AD87, offset: 0x1AD87, size: 0x8, addend: 0x0, symName: __ZNSt3__13minB7v160006ImEERKT_S3_S3_, symObjAddr: 0x7B0C, symBinAddr: 0x1000090D4, symSize: 0x2C }
  - { offsetInCU: 0x1AFB4, offset: 0x1AFB4, size: 0x8, addend: 0x0, symName: __ZNSt3__13minB7v160006ImNS_6__lessImmEEEERKT_S5_S5_T0_, symObjAddr: 0x7B9C, symBinAddr: 0x100009164, symSize: 0x54 }
  - { offsetInCU: 0x1B00E, offset: 0x1B00E, size: 0x8, addend: 0x0, symName: __ZNSt3__120__throw_length_errorB7v160006EPKc, symObjAddr: 0x7C30, symBinAddr: 0x1000091F8, symSize: 0x64 }
  - { offsetInCU: 0x1B036, offset: 0x1B036, size: 0x8, addend: 0x0, symName: __ZNSt3__119__allocate_at_leastB7v160006INS_9allocatorIN8workflow11requirementEEEEENS_19__allocation_resultINS_16allocator_traitsIT_E7pointerEEERS7_m, symObjAddr: 0x7E24, symBinAddr: 0x1000093EC, symSize: 0x40 }
  - { offsetInCU: 0x1B079, offset: 0x1B079, size: 0x8, addend: 0x0, symName: __ZNSt3__142__uninitialized_allocator_move_if_noexceptB7v160006INS_9allocatorIN8workflow11requirementEEENS_16reverse_iteratorIPS3_EES7_S3_vEET1_RT_T0_SB_S8_, symObjAddr: 0x7FD8, symBinAddr: 0x1000095A0, symSize: 0x78 }
  - { offsetInCU: 0x1B0F6, offset: 0x1B0F6, size: 0x8, addend: 0x0, symName: __ZNSt3__14swapB7v160006IPN8workflow11requirementEEENS_9enable_ifIXaasr21is_move_constructibleIT_EE5valuesr18is_move_assignableIS5_EE5valueEvE4typeERS5_S8_, symObjAddr: 0x809C, symBinAddr: 0x100009664, symSize: 0x3C }
  - { offsetInCU: 0x1B147, offset: 0x1B147, size: 0x8, addend: 0x0, symName: __ZNSt3__125__debug_db_invalidate_allB7v160006INS_6vectorIN8workflow11requirementENS_9allocatorIS3_EEEEEEvPT_, symObjAddr: 0x8184, symBinAddr: 0x10000974C, symSize: 0x10 }
  - { offsetInCU: 0x1B178, offset: 0x1B178, size: 0x8, addend: 0x0, symName: __ZNSt3__14moveB7v160006INS_16reverse_iteratorIPN8workflow11requirementEEES5_EET0_T_S7_S6_, symObjAddr: 0x8194, symBinAddr: 0x10000975C, symSize: 0x78 }
  - { offsetInCU: 0x1B1D2, offset: 0x1B1D2, size: 0x8, addend: 0x0, symName: __ZNSt3__16__moveB7v160006INS_17_ClassicAlgPolicyENS_16reverse_iteratorIPN8workflow11requirementEEES6_S6_EENS_4pairIT0_T2_EES8_T1_S9_, symObjAddr: 0x820C, symBinAddr: 0x1000097D4, symSize: 0x64 }
  - { offsetInCU: 0x1B23E, offset: 0x1B23E, size: 0x8, addend: 0x0, symName: __ZNSt3__123__dispatch_copy_or_moveB7v160006INS_17_ClassicAlgPolicyENS_11__move_loopIS1_EENS_14__move_trivialENS_16reverse_iteratorIPN8workflow11requirementEEES9_S9_EENS_4pairIT2_T4_EESB_T3_SC_, symObjAddr: 0x8270, symBinAddr: 0x100009838, symSize: 0x64 }
  - { offsetInCU: 0x1B2BC, offset: 0x1B2BC, size: 0x8, addend: 0x0, symName: __ZNSt3__121__unwrap_and_dispatchB7v160006INS_10__overloadINS_11__move_loopINS_17_ClassicAlgPolicyEEENS_14__move_trivialEEENS_16reverse_iteratorIPN8workflow11requirementEEESB_SB_Li0EEENS_4pairIT0_T2_EESD_T1_SE_, symObjAddr: 0x82D4, symBinAddr: 0x10000989C, symSize: 0x12C }
  - { offsetInCU: 0x1B34C, offset: 0x1B34C, size: 0x8, addend: 0x0, symName: __ZNSt3__114__unwrap_rangeB7v160006INS_16reverse_iteratorIPN8workflow11requirementEEES5_EEDaT_T0_, symObjAddr: 0x8400, symBinAddr: 0x1000099C8, symSize: 0x4C }
  - { offsetInCU: 0x1B506, offset: 0x1B506, size: 0x8, addend: 0x0, symName: __ZNSt3__113__unwrap_iterB7v160006INS_16reverse_iteratorIPN8workflow11requirementEEENS_18__unwrap_iter_implIS5_Lb0EEELi0EEEDTclsrT0_8__unwrapclsr3stdE7declvalIT_EEEES9_, symObjAddr: 0x84EC, symBinAddr: 0x100009AB4, symSize: 0x44 }
  - { offsetInCU: 0x1B54A, offset: 0x1B54A, size: 0x8, addend: 0x0, symName: __ZNSt3__19make_pairB7v160006INS_16reverse_iteratorIPN8workflow11requirementEEES5_EENS_4pairINS_18__unwrap_ref_decayIT_E4typeENS7_IT0_E4typeEEEOS8_OSB_, symObjAddr: 0x8530, symBinAddr: 0x100009AF8, symSize: 0x38 }
  - { offsetInCU: 0x1B599, offset: 0x1B599, size: 0x8, addend: 0x0, symName: __ZNSt3__114__rewrap_rangeB7v160006INS_16reverse_iteratorIPN8workflow11requirementEEES5_S5_EET0_S6_T1_, symObjAddr: 0x8568, symBinAddr: 0x100009B30, symSize: 0x5C }
  - { offsetInCU: 0x1B5EE, offset: 0x1B5EE, size: 0x8, addend: 0x0, symName: __ZNSt3__113__rewrap_iterB7v160006INS_16reverse_iteratorIPN8workflow11requirementEEES5_NS_18__unwrap_iter_implIS5_Lb0EEEEET_S8_T0_, symObjAddr: 0x85C4, symBinAddr: 0x100009B8C, symSize: 0x74 }
  - { offsetInCU: 0x1B693, offset: 0x1B693, size: 0x8, addend: 0x0, symName: __ZNSt3__1neB7v160006IPN8workflow11requirementES3_EEbRKNS_16reverse_iteratorIT_EERKNS4_IT0_EE, symObjAddr: 0x872C, symBinAddr: 0x100009CF4, symSize: 0x48 }
  - { offsetInCU: 0x1B7C4, offset: 0x1B7C4, size: 0x8, addend: 0x0, symName: __ZNSt3__122__make_exception_guardB7v160006INS_6vectorIN8workflow11requirementENS_9allocatorIS3_EEE16__destroy_vectorEEENS_28__exception_guard_exceptionsIT_EES9_, symObjAddr: 0x8D00, symBinAddr: 0x10000A2C8, symSize: 0x40 }
  - { offsetInCU: 0x1B7F9, offset: 0x1B7F9, size: 0x8, addend: 0x0, symName: __ZNSt3__130__uninitialized_allocator_copyB7v160006INS_9allocatorIN8workflow11requirementEEEPS3_S5_S5_EET2_RT_T0_T1_S6_, symObjAddr: 0x8F74, symBinAddr: 0x10000A53C, symSize: 0xF4 }
  - { offsetInCU: 0x1B897, offset: 0x1B897, size: 0x8, addend: 0x0, symName: __ZNSt3__122__make_exception_guardB7v160006INS_29_AllocatorDestroyRangeReverseINS_9allocatorIN8workflow11requirementEEEPS4_EEEENS_28__exception_guard_exceptionsIT_EES9_, symObjAddr: 0x9068, symBinAddr: 0x10000A630, symSize: 0x4C }
  - { offsetInCU: 0x1B8CD, offset: 0x1B8CD, size: 0x8, addend: 0x0, symName: __ZNSt3__112construct_atB7v160006IN8workflow11requirementEJRS2_EPS2_EEPT_S6_DpOT0_, symObjAddr: 0x920C, symBinAddr: 0x10000A7D4, symSize: 0x2C }
  - { offsetInCU: 0x1B93D, offset: 0x1B93D, size: 0x8, addend: 0x0, symName: __ZNSt3__119__allocator_destroyB7v160006INS_9allocatorIN8workflow11requirementEEENS_16reverse_iteratorIPS3_EES7_EEvRT_T0_T1_, symObjAddr: 0x92F0, symBinAddr: 0x10000A8B8, symSize: 0x70 }
  - { offsetInCU: 0x1B9A0, offset: 0x1B9A0, size: 0x8, addend: 0x0, symName: __ZNSt3__112__to_addressB7v160006INS_16reverse_iteratorIPN8workflow11requirementEEEvEENS_5decayIDTclsr19__to_address_helperIT_EE6__callclsr3stdE7declvalIRKS7_EEEEE4typeES9_, symObjAddr: 0x9360, symBinAddr: 0x10000A928, symSize: 0x24 }
  - { offsetInCU: 0x1B9FF, offset: 0x1B9FF, size: 0x8, addend: 0x0, symName: __ZNSt3__14prevB7v160006IPN8workflow11requirementEEENS_9enable_ifIXsr25__is_cpp17_input_iteratorIT_EE5valueES5_E4typeES5_NS_15iterator_traitsIS5_E15difference_typeE, symObjAddr: 0x93E8, symBinAddr: 0x10000A9B0, symSize: 0x50 }
  - { offsetInCU: 0x1BA42, offset: 0x1BA42, size: 0x8, addend: 0x0, symName: __ZNSt3__121__convert_to_integralB7v160006El, symObjAddr: 0x9488, symBinAddr: 0x10000AA50, symSize: 0x14 }
  - { offsetInCU: 0x1BA6E, offset: 0x1BA6E, size: 0x8, addend: 0x0, symName: __ZNSt3__19__advanceB7v160006IPN8workflow11requirementEEEvRT_NS_15iterator_traitsIS4_E15difference_typeENS_26random_access_iterator_tagE, symObjAddr: 0x949C, symBinAddr: 0x10000AA64, symSize: 0x28 }
  - { offsetInCU: 0x1BAB7, offset: 0x1BAB7, size: 0x8, addend: 0x0, symName: __ZNSt3__116forward_as_tupleB7v160006IJmEEENS_5tupleIJDpOT_EEES4_, symObjAddr: 0x9A3C, symBinAddr: 0x10000B004, symSize: 0x2C }
  - { offsetInCU: 0x1BAF0, offset: 0x1BAF0, size: 0x8, addend: 0x0, symName: __ZNSt3__17launderB7v160006IKNS_4pairIKm8workflowEEEEPT_S7_, symObjAddr: 0xA0C0, symBinAddr: 0x10000B688, symSize: 0x24 }
  - { offsetInCU: 0x1BB27, offset: 0x1BB27, size: 0x8, addend: 0x0, symName: __ZNSt3__19__launderB7v160006IKNS_4pairIKm8workflowEEEEPT_S7_, symObjAddr: 0xA0E4, symBinAddr: 0x10000B6AC, symSize: 0x14 }
  - { offsetInCU: 0x1BBA1, offset: 0x1BBA1, size: 0x8, addend: 0x0, symName: __ZNSt3__112construct_atB7v160006INS_4pairIKm8workflowEEJRKNS_21piecewise_construct_tENS_5tupleIJOmEEENS8_IJEEEEPS4_EEPT_SE_DpOT0_, symObjAddr: 0xA3DC, symBinAddr: 0x10000B9A4, symSize: 0x50 }
  - { offsetInCU: 0x1BC37, offset: 0x1BC37, size: 0x8, addend: 0x0, symName: __ZNSt3__13getB7v160006ILm0EJOmEEERNS_13tuple_elementIXT_ENS_5tupleIJDpT0_EEEE4typeERS6_, symObjAddr: 0xA4F0, symBinAddr: 0x10000BAB8, symSize: 0x24 }
  - { offsetInCU: 0x1BC7A, offset: 0x1BC7A, size: 0x8, addend: 0x0, symName: __ZNSt3__18distanceB7v160006IPKN8workflow11requirementEEENS_15iterator_traitsIT_E15difference_typeES6_S6_, symObjAddr: 0xA87C, symBinAddr: 0x10000BE44, symSize: 0x2C }
  - { offsetInCU: 0x1BCBD, offset: 0x1BCBD, size: 0x8, addend: 0x0, symName: __ZNSt3__14copyB7v160006IPKN8workflow11requirementEPS2_EET0_T_S7_S6_, symObjAddr: 0xA8F8, symBinAddr: 0x10000BEC0, symSize: 0x40 }
  - { offsetInCU: 0x1BD17, offset: 0x1BD17, size: 0x8, addend: 0x0, symName: __ZNSt3__110__distanceB7v160006IPKN8workflow11requirementEEENS_15iterator_traitsIT_E15difference_typeES6_S6_NS_26random_access_iterator_tagE, symObjAddr: 0xAAB0, symBinAddr: 0x10000C078, symSize: 0x28 }
  - { offsetInCU: 0x1BD64, offset: 0x1BD64, size: 0x8, addend: 0x0, symName: __ZNSt3__121__convert_to_integralB7v160006Em, symObjAddr: 0xAAD8, symBinAddr: 0x10000C0A0, symSize: 0x14 }
  - { offsetInCU: 0x1BD90, offset: 0x1BD90, size: 0x8, addend: 0x0, symName: __ZNSt3__19__advanceB7v160006IPKN8workflow11requirementEEEvRT_NS_15iterator_traitsIS5_E15difference_typeENS_26random_access_iterator_tagE, symObjAddr: 0xAAEC, symBinAddr: 0x10000C0B4, symSize: 0x28 }
  - { offsetInCU: 0x1BDD9, offset: 0x1BDD9, size: 0x8, addend: 0x0, symName: __ZNSt3__16__copyB7v160006INS_17_ClassicAlgPolicyEPKN8workflow11requirementES5_PS3_EENS_4pairIT0_T2_EES8_T1_S9_, symObjAddr: 0xAB14, symBinAddr: 0x10000C0DC, symSize: 0x44 }
  - { offsetInCU: 0x1BE45, offset: 0x1BE45, size: 0x8, addend: 0x0, symName: __ZNSt3__123__dispatch_copy_or_moveB7v160006INS_17_ClassicAlgPolicyENS_11__copy_loopIS1_EENS_14__copy_trivialEPKN8workflow11requirementES8_PS6_EENS_4pairIT2_T4_EESB_T3_SC_, symObjAddr: 0xAB58, symBinAddr: 0x10000C120, symSize: 0x44 }
  - { offsetInCU: 0x1BEC3, offset: 0x1BEC3, size: 0x8, addend: 0x0, symName: __ZNSt3__121__unwrap_and_dispatchB7v160006INS_10__overloadINS_11__copy_loopINS_17_ClassicAlgPolicyEEENS_14__copy_trivialEEEPKN8workflow11requirementESA_PS8_Li0EEENS_4pairIT0_T2_EESD_T1_SE_, symObjAddr: 0xAB9C, symBinAddr: 0x10000C164, symSize: 0xB4 }
  - { offsetInCU: 0x1BF51, offset: 0x1BF51, size: 0x8, addend: 0x0, symName: __ZNSt3__114__unwrap_rangeB7v160006IPKN8workflow11requirementES4_EEDaT_T0_, symObjAddr: 0xAC50, symBinAddr: 0x10000C218, symSize: 0x3C }
  - { offsetInCU: 0x1C122, offset: 0x1C122, size: 0x8, addend: 0x0, symName: __ZNSt3__113__unwrap_iterB7v160006IPN8workflow11requirementENS_18__unwrap_iter_implIS3_Lb1EEELi0EEEDTclsrT0_8__unwrapclsr3stdE7declvalIT_EEEES7_, symObjAddr: 0xACD4, symBinAddr: 0x10000C29C, symSize: 0x24 }
  - { offsetInCU: 0x1C166, offset: 0x1C166, size: 0x8, addend: 0x0, symName: __ZNSt3__19make_pairB7v160006IPKN8workflow11requirementEPS2_EENS_4pairINS_18__unwrap_ref_decayIT_E4typeENS7_IT0_E4typeEEEOS8_OSB_, symObjAddr: 0xACF8, symBinAddr: 0x10000C2C0, symSize: 0x38 }
  - { offsetInCU: 0x1C1B5, offset: 0x1C1B5, size: 0x8, addend: 0x0, symName: __ZNSt3__114__rewrap_rangeB7v160006IPKN8workflow11requirementES4_S4_EET0_S5_T1_, symObjAddr: 0xAD30, symBinAddr: 0x10000C2F8, symSize: 0x2C }
  - { offsetInCU: 0x1C20A, offset: 0x1C20A, size: 0x8, addend: 0x0, symName: __ZNSt3__113__rewrap_iterB7v160006IPN8workflow11requirementES3_NS_18__unwrap_iter_implIS3_Lb1EEEEET_S6_T0_, symObjAddr: 0xAD5C, symBinAddr: 0x10000C324, symSize: 0x3C }
  - { offsetInCU: 0x1C37B, offset: 0x1C37B, size: 0x8, addend: 0x0, symName: __ZNSt3__113__unwrap_iterB7v160006IPKN8workflow11requirementENS_18__unwrap_iter_implIS4_Lb1EEELi0EEEDTclsrT0_8__unwrapclsr3stdE7declvalIT_EEEES8_, symObjAddr: 0xADF0, symBinAddr: 0x10000C3B8, symSize: 0x24 }
  - { offsetInCU: 0x1C412, offset: 0x1C412, size: 0x8, addend: 0x0, symName: __ZNSt3__112__to_addressB7v160006IKN8workflow11requirementEEEPT_S5_, symObjAddr: 0xAE74, symBinAddr: 0x10000C43C, symSize: 0x14 }
  - { offsetInCU: 0x1C447, offset: 0x1C447, size: 0x8, addend: 0x0, symName: __ZNSt3__119__copy_trivial_implB7v160006IKN8workflow11requirementES2_EENS_4pairIPT_PT0_EES6_S6_S8_, symObjAddr: 0xAEBC, symBinAddr: 0x10000C484, symSize: 0x84 }
  - { offsetInCU: 0x1C4AF, offset: 0x1C4AF, size: 0x8, addend: 0x0, symName: __ZNSt3__19make_pairB7v160006IRPKN8workflow11requirementEPS2_EENS_4pairINS_18__unwrap_ref_decayIT_E4typeENS8_IT0_E4typeEEEOS9_OSC_, symObjAddr: 0xAF40, symBinAddr: 0x10000C508, symSize: 0x38 }
  - { offsetInCU: 0x1C551, offset: 0x1C551, size: 0x8, addend: 0x0, symName: __ZNSt3__113__rewrap_iterB7v160006IPKN8workflow11requirementES4_NS_18__unwrap_iter_implIS4_Lb1EEEEET_S7_T0_, symObjAddr: 0xB0A8, symBinAddr: 0x10000C670, symSize: 0x3C }
  - { offsetInCU: 0x1C5A6, offset: 0x1C5A6, size: 0x8, addend: 0x0, symName: __ZNSt3__130__uninitialized_allocator_copyB7v160006INS_9allocatorIN8workflow11requirementEEES3_S3_LPv0EEEPT0_RT_PKS6_SB_S7_, symObjAddr: 0xB184, symBinAddr: 0x10000C74C, symSize: 0x38 }
  - { offsetInCU: 0x1C61E, offset: 0x1C61E, size: 0x8, addend: 0x0, symName: __ZNSt3__125__debug_db_invalidate_allB7v160006INS_12__hash_tableINS_17__hash_value_typeIm8workflowEENS_22__unordered_map_hasherImS4_NS_4hashImEENS_8equal_toImEELb1EEENS_21__unordered_map_equalImS4_S9_S7_Lb1EEENS_9allocatorIS4_EEEEEEvPT_, symObjAddr: 0xB78C, symBinAddr: 0x10000CD54, symSize: 0x10 }
  - { offsetInCU: 0x1C697, offset: 0x1C697, size: 0x8, addend: 0x0, symName: __ZNSt3__116forward_as_tupleB7v160006IJRKNS_12basic_stringIcNS_11char_traitsIcEENS_9allocatorIcEEEEEEENS_5tupleIJDpOT_EEESC_, symObjAddr: 0xC10C, symBinAddr: 0x10000D6D4, symSize: 0x2C }
  - { offsetInCU: 0x1C6D0, offset: 0x1C6D0, size: 0x8, addend: 0x0, symName: __ZNSt3__112construct_atB7v160006INS_4pairIKNS_12basic_stringIcNS_11char_traitsIcEENS_9allocatorIcEEEEmEEJRKNS_21piecewise_construct_tENS_5tupleIJRS8_EEENSD_IJEEEEPS9_EEPT_SJ_DpOT0_, symObjAddr: 0xC2C8, symBinAddr: 0x10000D890, symSize: 0x50 }
  - { offsetInCU: 0x1C766, offset: 0x1C766, size: 0x8, addend: 0x0, symName: __ZNSt3__13getB7v160006ILm0EJRKNS_12basic_stringIcNS_11char_traitsIcEENS_9allocatorIcEEEEEEERNS_13tuple_elementIXT_ENS_5tupleIJDpT0_EEEE4typeERSD_, symObjAddr: 0xC3D8, symBinAddr: 0x10000D9A0, symSize: 0x24 }
  - { offsetInCU: 0x1C7BE, offset: 0x1C7BE, size: 0x8, addend: 0x0, symName: __ZNSt3__18distanceB7v160006IPN8workflow11requirementEEENS_15iterator_traitsIT_E15difference_typeES5_S5_, symObjAddr: 0xC728, symBinAddr: 0x10000DCF0, symSize: 0x2C }
  - { offsetInCU: 0x1C801, offset: 0x1C801, size: 0x8, addend: 0x0, symName: __ZNSt3__14copyB7v160006IPN8workflow11requirementES3_EET0_T_S5_S4_, symObjAddr: 0xC7A4, symBinAddr: 0x10000DD6C, symSize: 0x40 }
  - { offsetInCU: 0x1C85B, offset: 0x1C85B, size: 0x8, addend: 0x0, symName: __ZNSt3__110__distanceB7v160006IPN8workflow11requirementEEENS_15iterator_traitsIT_E15difference_typeES5_S5_NS_26random_access_iterator_tagE, symObjAddr: 0xC7E4, symBinAddr: 0x10000DDAC, symSize: 0x28 }
  - { offsetInCU: 0x1C8A8, offset: 0x1C8A8, size: 0x8, addend: 0x0, symName: __ZNSt3__16__copyB7v160006INS_17_ClassicAlgPolicyEPN8workflow11requirementES4_S4_EENS_4pairIT0_T2_EES6_T1_S7_, symObjAddr: 0xC80C, symBinAddr: 0x10000DDD4, symSize: 0x44 }
  - { offsetInCU: 0x1C914, offset: 0x1C914, size: 0x8, addend: 0x0, symName: __ZNSt3__123__dispatch_copy_or_moveB7v160006INS_17_ClassicAlgPolicyENS_11__copy_loopIS1_EENS_14__copy_trivialEPN8workflow11requirementES7_S7_EENS_4pairIT2_T4_EES9_T3_SA_, symObjAddr: 0xC850, symBinAddr: 0x10000DE18, symSize: 0x44 }
  - { offsetInCU: 0x1C992, offset: 0x1C992, size: 0x8, addend: 0x0, symName: __ZNSt3__121__unwrap_and_dispatchB7v160006INS_10__overloadINS_11__copy_loopINS_17_ClassicAlgPolicyEEENS_14__copy_trivialEEEPN8workflow11requirementES9_S9_Li0EEENS_4pairIT0_T2_EESB_T1_SC_, symObjAddr: 0xC894, symBinAddr: 0x10000DE5C, symSize: 0xB4 }
  - { offsetInCU: 0x1CA20, offset: 0x1CA20, size: 0x8, addend: 0x0, symName: __ZNSt3__114__unwrap_rangeB7v160006IPN8workflow11requirementES3_EEDaT_T0_, symObjAddr: 0xC948, symBinAddr: 0x10000DF10, symSize: 0x3C }
  - { offsetInCU: 0x1CB6F, offset: 0x1CB6F, size: 0x8, addend: 0x0, symName: __ZNSt3__19make_pairB7v160006IPN8workflow11requirementES3_EENS_4pairINS_18__unwrap_ref_decayIT_E4typeENS5_IT0_E4typeEEEOS6_OS9_, symObjAddr: 0xC9CC, symBinAddr: 0x10000DF94, symSize: 0x38 }
  - { offsetInCU: 0x1CBBE, offset: 0x1CBBE, size: 0x8, addend: 0x0, symName: __ZNSt3__114__rewrap_rangeB7v160006IPN8workflow11requirementES3_S3_EET0_S4_T1_, symObjAddr: 0xCA04, symBinAddr: 0x10000DFCC, symSize: 0x2C }
  - { offsetInCU: 0x1CC63, offset: 0x1CC63, size: 0x8, addend: 0x0, symName: __ZNSt3__119__copy_trivial_implB7v160006IN8workflow11requirementES2_EENS_4pairIPT_PT0_EES5_S5_S7_, symObjAddr: 0xCAF8, symBinAddr: 0x10000E0C0, symSize: 0x84 }
  - { offsetInCU: 0x1CCCB, offset: 0x1CCCB, size: 0x8, addend: 0x0, symName: __ZNSt3__19make_pairB7v160006IRPN8workflow11requirementES3_EENS_4pairINS_18__unwrap_ref_decayIT_E4typeENS6_IT0_E4typeEEEOS7_OSA_, symObjAddr: 0xCB7C, symBinAddr: 0x10000E144, symSize: 0x38 }
  - { offsetInCU: 0x1CD1A, offset: 0x1CD1A, size: 0x8, addend: 0x0, symName: __ZNSt3__1neB7v160006ERKNS_19__hash_map_iteratorINS_15__hash_iteratorIPNS_11__hash_nodeINS_17__hash_value_typeINS_12basic_stringIcNS_11char_traitsIcEENS_9allocatorIcEEEEmEEPvEEEEEESH_, symObjAddr: 0xCCF8, symBinAddr: 0x10000E2C0, symSize: 0x30 }
  - { offsetInCU: 0x1CE29, offset: 0x1CE29, size: 0x8, addend: 0x0, symName: __ZNSt3__1lsB7v160006IcNS_11char_traitsIcEENS_9allocatorIcEEEERNS_13basic_ostreamIT_T0_EES9_RKNS_12basic_stringIS6_S7_T1_EE, symObjAddr: 0xCD84, symBinAddr: 0x10000E34C, symSize: 0x4C }
  - { offsetInCU: 0x1CE81, offset: 0x1CE81, size: 0x8, addend: 0x0, symName: __ZNSt3__1neB7v160006ERKNS_15__hash_iteratorIPNS_11__hash_nodeINS_17__hash_value_typeINS_12basic_stringIcNS_11char_traitsIcEENS_9allocatorIcEEEEmEEPvEEEESF_, symObjAddr: 0xCEEC, symBinAddr: 0x10000E4B4, symSize: 0x34 }
  - { offsetInCU: 0x1CEBE, offset: 0x1CEBE, size: 0x8, addend: 0x0, symName: __ZNSt3__1eqB7v160006ERKNS_15__hash_iteratorIPNS_11__hash_nodeINS_17__hash_value_typeINS_12basic_stringIcNS_11char_traitsIcEENS_9allocatorIcEEEEmEEPvEEEESF_, symObjAddr: 0xCF20, symBinAddr: 0x10000E4E8, symSize: 0x30 }
  - { offsetInCU: 0x1CEFB, offset: 0x1CEFB, size: 0x8, addend: 0x0, symName: __ZNSt3__13getB7v160006ILm0EKNS_12basic_stringIcNS_11char_traitsIcEENS_9allocatorIcEEEEmEERNS_13tuple_elementIXT_ENS_4pairIT0_T1_EEE4typeERSC_, symObjAddr: 0xCFA4, symBinAddr: 0x10000E56C, symSize: 0x24 }
  - { offsetInCU: 0x1CF44, offset: 0x1CF44, size: 0x8, addend: 0x0, symName: __ZNSt3__13getB7v160006ILm1EKNS_12basic_stringIcNS_11char_traitsIcEENS_9allocatorIcEEEEmEERNS_13tuple_elementIXT_ENS_4pairIT0_T1_EEE4typeERSC_, symObjAddr: 0xCFC8, symBinAddr: 0x10000E590, symSize: 0x24 }
  - { offsetInCU: 0x1D007, offset: 0x1D007, size: 0x8, addend: 0x0, symName: __ZNSt3__116__pad_and_outputB7v160006IcNS_11char_traitsIcEEEENS_19ostreambuf_iteratorIT_T0_EES6_PKS4_S8_S8_RNS_8ios_baseES4_, symObjAddr: 0xD220, symBinAddr: 0x10000E7E8, symSize: 0x240 }
  - { offsetInCU: 0x1D0D6, offset: 0x1D0D6, size: 0x8, addend: 0x0, symName: __ZNSt3__112__to_addressB7v160006IcEEPT_S2_, symObjAddr: 0xD698, symBinAddr: 0x10000EC60, symSize: 0x14 }
  - { offsetInCU: 0x1D10B, offset: 0x1D10B, size: 0x8, addend: 0x0, symName: __ZNSt3__19use_facetB7v160006INS_5ctypeIcEEEERKT_RKNS_6localeE, symObjAddr: 0xD7F0, symBinAddr: 0x10000EDB8, symSize: 0x2C }
  - { offsetInCU: 0x1D5DA, offset: 0x1D5DA, size: 0x8, addend: 0x0, symName: __ZNSt3__1neB7v160006IPcEEbRKNS_11__wrap_iterIT_EES6_, symObjAddr: 0xDC10, symBinAddr: 0x10000F1D8, symSize: 0x34 }
  - { offsetInCU: 0x1D61D, offset: 0x1D61D, size: 0x8, addend: 0x0, symName: __ZNSt3__119__debug_db_insert_cB7v160006INS_6vectorIiNS_9allocatorIiEEEEEEvPT_, symObjAddr: 0xDE14, symBinAddr: 0x10000F3DC, symSize: 0x10 }
  - { offsetInCU: 0x1D64E, offset: 0x1D64E, size: 0x8, addend: 0x0, symName: __ZNSt3__125__debug_db_invalidate_allB7v160006INS_6vectorIiNS_9allocatorIiEEEEEEvPT_, symObjAddr: 0xDFF0, symBinAddr: 0x10000F5B8, symSize: 0x10 }
  - { offsetInCU: 0x1D67F, offset: 0x1D67F, size: 0x8, addend: 0x0, symName: __ZNSt3__112__to_addressB7v160006IiEEPT_S2_, symObjAddr: 0xE0DC, symBinAddr: 0x10000F6A4, symSize: 0x14 }
  - { offsetInCU: 0x1D6B4, offset: 0x1D6B4, size: 0x8, addend: 0x0, symName: __ZNSt3__110destroy_atB7v160006IiLi0EEEvPT_, symObjAddr: 0xE0F0, symBinAddr: 0x10000F6B8, symSize: 0x24 }
  - { offsetInCU: 0x1D6EB, offset: 0x1D6EB, size: 0x8, addend: 0x0, symName: __ZNSt3__112__destroy_atB7v160006IiLi0EEEvPT_, symObjAddr: 0xE114, symBinAddr: 0x10000F6DC, symSize: 0x10 }
  - { offsetInCU: 0x1D722, offset: 0x1D722, size: 0x8, addend: 0x0, symName: __ZNSt3__1eqB7v160006IPcEEbRKNS_11__wrap_iterIT_EES6_, symObjAddr: 0xE2D8, symBinAddr: 0x10000F8A0, symSize: 0x48 }
  - { offsetInCU: 0x1D78A, offset: 0x1D78A, size: 0x8, addend: 0x0, symName: __ZNSt3__112construct_atB7v160006IiJiEPiEEPT_S3_DpOT0_, symObjAddr: 0xE5DC, symBinAddr: 0x10000FBA4, symSize: 0x2C }
  - { offsetInCU: 0x1D7FA, offset: 0x1D7FA, size: 0x8, addend: 0x0, symName: __ZNSt3__119__allocate_at_leastB7v160006INS_9allocatorIiEEEENS_19__allocation_resultINS_16allocator_traitsIT_E7pointerEEERS5_m, symObjAddr: 0xEA78, symBinAddr: 0x100010040, symSize: 0x40 }
  - { offsetInCU: 0x1D83D, offset: 0x1D83D, size: 0x8, addend: 0x0, symName: __ZNSt3__142__uninitialized_allocator_move_if_noexceptB7v160006INS_9allocatorIiEENS_16reverse_iteratorIPiEES5_ivEET1_RT_T0_S9_S6_, symObjAddr: 0xECE4, symBinAddr: 0x1000102AC, symSize: 0x78 }
  - { offsetInCU: 0x1D8BA, offset: 0x1D8BA, size: 0x8, addend: 0x0, symName: __ZNSt3__14swapB7v160006IPiEENS_9enable_ifIXaasr21is_move_constructibleIT_EE5valuesr18is_move_assignableIS3_EE5valueEvE4typeERS3_S6_, symObjAddr: 0xEDA8, symBinAddr: 0x100010370, symSize: 0x3C }
  - { offsetInCU: 0x1D90B, offset: 0x1D90B, size: 0x8, addend: 0x0, symName: __ZNSt3__14moveB7v160006INS_16reverse_iteratorIPiEES3_EET0_T_S5_S4_, symObjAddr: 0xEE90, symBinAddr: 0x100010458, symSize: 0x78 }
  - { offsetInCU: 0x1D965, offset: 0x1D965, size: 0x8, addend: 0x0, symName: __ZNSt3__16__moveB7v160006INS_17_ClassicAlgPolicyENS_16reverse_iteratorIPiEES4_S4_EENS_4pairIT0_T2_EES6_T1_S7_, symObjAddr: 0xEF08, symBinAddr: 0x1000104D0, symSize: 0x64 }
  - { offsetInCU: 0x1D9D1, offset: 0x1D9D1, size: 0x8, addend: 0x0, symName: __ZNSt3__123__dispatch_copy_or_moveB7v160006INS_17_ClassicAlgPolicyENS_11__move_loopIS1_EENS_14__move_trivialENS_16reverse_iteratorIPiEES7_S7_EENS_4pairIT2_T4_EES9_T3_SA_, symObjAddr: 0xEF6C, symBinAddr: 0x100010534, symSize: 0x64 }
  - { offsetInCU: 0x1DA4F, offset: 0x1DA4F, size: 0x8, addend: 0x0, symName: __ZNSt3__121__unwrap_and_dispatchB7v160006INS_10__overloadINS_11__move_loopINS_17_ClassicAlgPolicyEEENS_14__move_trivialEEENS_16reverse_iteratorIPiEES9_S9_Li0EEENS_4pairIT0_T2_EESB_T1_SC_, symObjAddr: 0xEFD0, symBinAddr: 0x100010598, symSize: 0x12C }
  - { offsetInCU: 0x1DADF, offset: 0x1DADF, size: 0x8, addend: 0x0, symName: __ZNSt3__114__unwrap_rangeB7v160006INS_16reverse_iteratorIPiEES3_EEDaT_T0_, symObjAddr: 0xF0FC, symBinAddr: 0x1000106C4, symSize: 0x4C }
  - { offsetInCU: 0x1DBFF, offset: 0x1DBFF, size: 0x8, addend: 0x0, symName: __ZNSt3__113__unwrap_iterB7v160006INS_16reverse_iteratorIPiEENS_18__unwrap_iter_implIS3_Lb0EEELi0EEEDTclsrT0_8__unwrapclsr3stdE7declvalIT_EEEES7_, symObjAddr: 0xF1E8, symBinAddr: 0x1000107B0, symSize: 0x44 }
  - { offsetInCU: 0x1DC43, offset: 0x1DC43, size: 0x8, addend: 0x0, symName: __ZNSt3__19make_pairB7v160006INS_16reverse_iteratorIPiEES3_EENS_4pairINS_18__unwrap_ref_decayIT_E4typeENS5_IT0_E4typeEEEOS6_OS9_, symObjAddr: 0xF22C, symBinAddr: 0x1000107F4, symSize: 0x38 }
  - { offsetInCU: 0x1DC92, offset: 0x1DC92, size: 0x8, addend: 0x0, symName: __ZNSt3__114__rewrap_rangeB7v160006INS_16reverse_iteratorIPiEES3_S3_EET0_S4_T1_, symObjAddr: 0xF264, symBinAddr: 0x10001082C, symSize: 0x5C }
  - { offsetInCU: 0x1DCE7, offset: 0x1DCE7, size: 0x8, addend: 0x0, symName: __ZNSt3__113__rewrap_iterB7v160006INS_16reverse_iteratorIPiEES3_NS_18__unwrap_iter_implIS3_Lb0EEEEET_S6_T0_, symObjAddr: 0xF2C0, symBinAddr: 0x100010888, symSize: 0x74 }
  - { offsetInCU: 0x1DD8C, offset: 0x1DD8C, size: 0x8, addend: 0x0, symName: __ZNSt3__1neB7v160006IPiS1_EEbRKNS_16reverse_iteratorIT_EERKNS2_IT0_EE, symObjAddr: 0xF428, symBinAddr: 0x1000109F0, symSize: 0x48 }
  - { offsetInCU: 0x1DE44, offset: 0x1DE44, size: 0x8, addend: 0x0, symName: __ZNSt3__118__debug_db_erase_cB7v160006INS_6vectorIiNS_9allocatorIiEEEEEEvPT_, symObjAddr: 0xFC7C, symBinAddr: 0x100011244, symSize: 0x10 }
  - { offsetInCU: 0x1DE75, offset: 0x1DE75, size: 0x8, addend: 0x0, symName: __ZNSt3__1neB7v160006IPN8workflow11requirementEEEbRKNS_11__wrap_iterIT_EES8_, symObjAddr: 0xFD00, symBinAddr: 0x1000112C8, symSize: 0x34 }
  - { offsetInCU: 0x1DEB8, offset: 0x1DEB8, size: 0x8, addend: 0x0, symName: __ZNSt3__1eqB7v160006IPN8workflow11requirementEEEbRKNS_11__wrap_iterIT_EES8_, symObjAddr: 0xFE34, symBinAddr: 0x1000113FC, symSize: 0x48 }
  - { offsetInCU: 0x1DEFB, offset: 0x1DEFB, size: 0x8, addend: 0x0, symName: __ZNSt3__122__make_exception_guardB7v160006INS_6vectorIiNS_9allocatorIiEEE16__destroy_vectorEEENS_28__exception_guard_exceptionsIT_EES7_, symObjAddr: 0x1007C, symBinAddr: 0x100011644, symSize: 0x40 }
  - { offsetInCU: 0x1DF30, offset: 0x1DF30, size: 0x8, addend: 0x0, symName: __ZNSt3__130__uninitialized_allocator_copyB7v160006INS_9allocatorIiEEPiS3_S3_EET2_RT_T0_T1_S4_, symObjAddr: 0x102F0, symBinAddr: 0x1000118B8, symSize: 0xF4 }
  - { offsetInCU: 0x1DFCE, offset: 0x1DFCE, size: 0x8, addend: 0x0, symName: __ZNSt3__122__make_exception_guardB7v160006INS_29_AllocatorDestroyRangeReverseINS_9allocatorIiEEPiEEEENS_28__exception_guard_exceptionsIT_EES7_, symObjAddr: 0x103E4, symBinAddr: 0x1000119AC, symSize: 0x4C }
  - { offsetInCU: 0x1E004, offset: 0x1E004, size: 0x8, addend: 0x0, symName: __ZNSt3__112construct_atB7v160006IiJRiEPiEEPT_S4_DpOT0_, symObjAddr: 0x10588, symBinAddr: 0x100011B50, symSize: 0x2C }
  - { offsetInCU: 0x1E074, offset: 0x1E074, size: 0x8, addend: 0x0, symName: __ZNSt3__119__allocator_destroyB7v160006INS_9allocatorIiEENS_16reverse_iteratorIPiEES5_EEvRT_T0_T1_, symObjAddr: 0x1066C, symBinAddr: 0x100011C34, symSize: 0x70 }
  - { offsetInCU: 0x1E0D7, offset: 0x1E0D7, size: 0x8, addend: 0x0, symName: __ZNSt3__112__to_addressB7v160006INS_16reverse_iteratorIPiEEvEENS_5decayIDTclsr19__to_address_helperIT_EE6__callclsr3stdE7declvalIRKS5_EEEEE4typeES7_, symObjAddr: 0x106DC, symBinAddr: 0x100011CA4, symSize: 0x24 }
  - { offsetInCU: 0x1E136, offset: 0x1E136, size: 0x8, addend: 0x0, symName: __ZNSt3__14prevB7v160006IPiEENS_9enable_ifIXsr25__is_cpp17_input_iteratorIT_EE5valueES3_E4typeES3_NS_15iterator_traitsIS3_E15difference_typeE, symObjAddr: 0x10764, symBinAddr: 0x100011D2C, symSize: 0x50 }
  - { offsetInCU: 0x1E179, offset: 0x1E179, size: 0x8, addend: 0x0, symName: __ZNSt3__19__advanceB7v160006IPiEEvRT_NS_15iterator_traitsIS2_E15difference_typeENS_26random_access_iterator_tagE, symObjAddr: 0x10804, symBinAddr: 0x100011DCC, symSize: 0x28 }
  - { offsetInCU: 0x1E1C2, offset: 0x1E1C2, size: 0x8, addend: 0x0, symName: __ZNSt3__17getlineB7v160006IcNS_11char_traitsIcEENS_9allocatorIcEEEERNS_13basic_istreamIT_T0_EES9_RNS_12basic_stringIS6_S7_T1_EES6_, symObjAddr: 0x10A7C, symBinAddr: 0x100012044, symSize: 0x238 }
  - { offsetInCU: 0x1E951, offset: 0x1E951, size: 0x8, addend: 0x0, symName: __ZSt28__throw_bad_array_new_lengthB7v160006v, symObjAddr: 0x4658, symBinAddr: 0x100005C20, symSize: 0x34 }
  - { offsetInCU: 0x202F5, offset: 0x202F5, size: 0x8, addend: 0x0, symName: __ZNSt3__16vectorIN8workflow11requirementENS_9allocatorIS2_EEE26__swap_out_circular_bufferERNS_14__split_bufferIS2_RS4_EE, symObjAddr: 0x794C, symBinAddr: 0x100008F14, symSize: 0x118 }
  - { offsetInCU: 0x2089A, offset: 0x2089A, size: 0x8, addend: 0x0, symName: __ZNSt3__16vectorIiNS_9allocatorIiEEE26__swap_out_circular_bufferERNS_14__split_bufferIiRS2_EE, symObjAddr: 0xE720, symBinAddr: 0x10000FCE8, symSize: 0x118 }
  - { offsetInCU: 0x22926, offset: 0x22926, size: 0x8, addend: 0x0, symName: _main, symObjAddr: 0x0, symBinAddr: 0x1000015C8, symSize: 0x300 }
  - { offsetInCU: 0x229C7, offset: 0x229C7, size: 0x8, addend: 0x0, symName: __ZNSt3__114basic_ifstreamIcNS_11char_traitsIcEEEC1EPKcj, symObjAddr: 0x300, symBinAddr: 0x1000018C8, symSize: 0x16C }
  - { offsetInCU: 0x22A11, offset: 0x22A11, size: 0x8, addend: 0x0, symName: __ZNSt3__112basic_stringIcNS_11char_traitsIcEENS_9allocatorIcEEEC1B7v160006Ev, symObjAddr: 0x46C, symBinAddr: 0x100001A34, symSize: 0x2C }
  - { offsetInCU: 0x22C49, offset: 0x22C49, size: 0x8, addend: 0x0, symName: __ZN9workflowsC1Ev, symObjAddr: 0x498, symBinAddr: 0x100001A60, symSize: 0x2C }
  - { offsetInCU: 0x22C73, offset: 0x22C73, size: 0x8, addend: 0x0, symName: __ZNKSt3__19basic_iosIcNS_11char_traitsIcEEEcvbB7v160006Ev, symObjAddr: 0x520, symBinAddr: 0x100001AE8, symSize: 0x2C }
  - { offsetInCU: 0x22C99, offset: 0x22C99, size: 0x8, addend: 0x0, symName: __ZNKSt3__112basic_stringIcNS_11char_traitsIcEENS_9allocatorIcEEE5emptyB7v160006Ev, symObjAddr: 0x54C, symBinAddr: 0x100001B14, symSize: 0x30 }
  - { offsetInCU: 0x22CBF, offset: 0x22CBF, size: 0x8, addend: 0x0, symName: __ZN9workflows15create_workflowENSt3__112basic_stringIcNS0_11char_traitsIcEENS0_9allocatorIcEEEE, symObjAddr: 0x57C, symBinAddr: 0x100001B44, symSize: 0x1BC }
  - { offsetInCU: 0x22D3F, offset: 0x22D3F, size: 0x8, addend: 0x0, symName: __ZN6Tester8runTestsER9workflows, symObjAddr: 0x738, symBinAddr: 0x100001D00, symSize: 0x8A0 }
  - { offsetInCU: 0x22DB5, offset: 0x22DB5, size: 0x8, addend: 0x0, symName: __ZN7ratingsC1ENSt3__112basic_stringIcNS0_11char_traitsIcEENS0_9allocatorIcEEEE, symObjAddr: 0xFD8, symBinAddr: 0x1000025A0, symSize: 0x34 }
  - { offsetInCU: 0x22DEE, offset: 0x22DEE, size: 0x8, addend: 0x0, symName: __ZN9workflows8evaluateE7ratings, symObjAddr: 0x100C, symBinAddr: 0x1000025D4, symSize: 0x1FC }
  - { offsetInCU: 0x22E88, offset: 0x22E88, size: 0x8, addend: 0x0, symName: __ZN7ratingsC1ERKS_, symObjAddr: 0x1208, symBinAddr: 0x1000027D0, symSize: 0x34 }
  - { offsetInCU: 0x22EBD, offset: 0x22EBD, size: 0x8, addend: 0x0, symName: __ZN7ratingsD1Ev, symObjAddr: 0x123C, symBinAddr: 0x100002804, symSize: 0x2C }
  - { offsetInCU: 0x22EE9, offset: 0x22EE9, size: 0x8, addend: 0x0, symName: __ZN7ratings6getAllEv, symObjAddr: 0x1268, symBinAddr: 0x100002830, symSize: 0x74 }
  - { offsetInCU: 0x22F39, offset: 0x22F39, size: 0x8, addend: 0x0, symName: __ZNSt3__113basic_ostreamIcNS_11char_traitsIcEEElsB7v160006EPFRS3_S4_E, symObjAddr: 0x1324, symBinAddr: 0x1000028EC, symSize: 0x2C }
  - { offsetInCU: 0x22F6D, offset: 0x22F6D, size: 0x8, addend: 0x0, symName: __ZN9workflowsD1Ev, symObjAddr: 0x13A8, symBinAddr: 0x100002970, symSize: 0x2C }
  - { offsetInCU: 0x22F9F, offset: 0x22F9F, size: 0x8, addend: 0x0, symName: __ZNSt3__114basic_ifstreamIcNS_11char_traitsIcEEED1Ev, symObjAddr: 0x13D4, symBinAddr: 0x10000299C, symSize: 0x40 }
  - { offsetInCU: 0x22FCC, offset: 0x22FCC, size: 0x8, addend: 0x0, symName: __ZNSt3__112basic_stringIcNS_11char_traitsIcEENS_9allocatorIcEEEC2B7v160006Ev, symObjAddr: 0x1414, symBinAddr: 0x1000029DC, symSize: 0x54 }
  - { offsetInCU: 0x22FFC, offset: 0x22FFC, size: 0x8, addend: 0x0, symName: __ZNSt3__117__compressed_pairINS_12basic_stringIcNS_11char_traitsIcEENS_9allocatorIcEEE5__repES5_EC1B7v160006INS_18__default_init_tagESA_EEOT_OT0_, symObjAddr: 0x1468, symBinAddr: 0x100002A30, symSize: 0x3C }
  - { offsetInCU: 0x23054, offset: 0x23054, size: 0x8, addend: 0x0, symName: __ZNSt3__112basic_stringIcNS_11char_traitsIcEENS_9allocatorIcEEE14__default_initB7v160006Ev, symObjAddr: 0x14C0, symBinAddr: 0x100002A88, symSize: 0x40 }
  - { offsetInCU: 0x2307A, offset: 0x2307A, size: 0x8, addend: 0x0, symName: __ZNSt3__117__compressed_pairINS_12basic_stringIcNS_11char_traitsIcEENS_9allocatorIcEEE5__repES5_EC2B7v160006INS_18__default_init_tagESA_EEOT_OT0_, symObjAddr: 0x1500, symBinAddr: 0x100002AC8, symSize: 0x3C }
  - { offsetInCU: 0x230D2, offset: 0x230D2, size: 0x8, addend: 0x0, symName: __ZNSt3__122__compressed_pair_elemINS_12basic_stringIcNS_11char_traitsIcEENS_9allocatorIcEEE5__repELi0ELb0EEC2B7v160006ENS_18__default_init_tagE, symObjAddr: 0x153C, symBinAddr: 0x100002B04, symSize: 0x14 }
  - { offsetInCU: 0x23106, offset: 0x23106, size: 0x8, addend: 0x0, symName: __ZNSt3__122__compressed_pair_elemINS_9allocatorIcEELi1ELb1EEC2B7v160006ENS_18__default_init_tagE, symObjAddr: 0x1550, symBinAddr: 0x100002B18, symSize: 0x2C }
  - { offsetInCU: 0x2313A, offset: 0x2313A, size: 0x8, addend: 0x0, symName: __ZNSt3__19allocatorIcEC2B7v160006Ev, symObjAddr: 0x157C, symBinAddr: 0x100002B44, symSize: 0x2C }
  - { offsetInCU: 0x23164, offset: 0x23164, size: 0x8, addend: 0x0, symName: __ZNSt3__116__non_trivial_ifILb1ENS_9allocatorIcEEEC2B7v160006Ev, symObjAddr: 0x15A8, symBinAddr: 0x100002B70, symSize: 0x14 }
  - { offsetInCU: 0x2318E, offset: 0x2318E, size: 0x8, addend: 0x0, symName: __ZNSt3__117__compressed_pairINS_12basic_stringIcNS_11char_traitsIcEENS_9allocatorIcEEE5__repES5_E5firstB7v160006Ev, symObjAddr: 0x15BC, symBinAddr: 0x100002B84, symSize: 0x24 }
  - { offsetInCU: 0x231B4, offset: 0x231B4, size: 0x8, addend: 0x0, symName: __ZNSt3__122__compressed_pair_elemINS_12basic_stringIcNS_11char_traitsIcEENS_9allocatorIcEEE5__repELi0ELb0EE5__getB7v160006Ev, symObjAddr: 0x15E0, symBinAddr: 0x100002BA8, symSize: 0x14 }
  - { offsetInCU: 0x231DA, offset: 0x231DA, size: 0x8, addend: 0x0, symName: __ZN9workflowsC2Ev, symObjAddr: 0x15F4, symBinAddr: 0x100002BBC, symSize: 0x118 }
  - { offsetInCU: 0x23204, offset: 0x23204, size: 0x8, addend: 0x0, symName: __ZNSt3__113unordered_mapINS_12basic_stringIcNS_11char_traitsIcEENS_9allocatorIcEEEEmNS_4hashIS6_EENS_8equal_toIS6_EENS4_INS_4pairIKS6_mEEEEEC1B7v160006Ev, symObjAddr: 0x170C, symBinAddr: 0x100002CD4, symSize: 0x2C }
  - { offsetInCU: 0x2322E, offset: 0x2322E, size: 0x8, addend: 0x0, symName: __ZNSt3__113unordered_mapIm8workflowNS_4hashImEENS_8equal_toImEENS_9allocatorINS_4pairIKmS1_EEEEEC1B7v160006Ev, symObjAddr: 0x1738, symBinAddr: 0x100002D00, symSize: 0x2C }
  - { offsetInCU: 0x23258, offset: 0x23258, size: 0x8, addend: 0x0, symName: __ZNSt3__113unordered_mapINS_12basic_stringIcNS_11char_traitsIcEENS_9allocatorIcEEEEmNS_4hashIS6_EENS_8equal_toIS6_EENS4_INS_4pairIKS6_mEEEEEixEOS6_, symObjAddr: 0x1764, symBinAddr: 0x100002D2C, symSize: 0x80 }
  - { offsetInCU: 0x23295, offset: 0x23295, size: 0x8, addend: 0x0, symName: __ZNSt3__112basic_stringIcNS_11char_traitsIcEENS_9allocatorIcEEEC1B7v160006IDnEEPKc, symObjAddr: 0x17E4, symBinAddr: 0x100002DAC, symSize: 0x34 }
  - { offsetInCU: 0x232D3, offset: 0x232D3, size: 0x8, addend: 0x0, symName: __ZNSt3__113unordered_mapIm8workflowNS_4hashImEENS_8equal_toImEENS_9allocatorINS_4pairIKmS1_EEEEED1B7v160006Ev, symObjAddr: 0x1818, symBinAddr: 0x100002DE0, symSize: 0x2C }
  - { offsetInCU: 0x232FD, offset: 0x232FD, size: 0x8, addend: 0x0, symName: __ZNSt3__113unordered_mapINS_12basic_stringIcNS_11char_traitsIcEENS_9allocatorIcEEEEmNS_4hashIS6_EENS_8equal_toIS6_EENS4_INS_4pairIKS6_mEEEEED1B7v160006Ev, symObjAddr: 0x1844, symBinAddr: 0x100002E0C, symSize: 0x2C }
  - { offsetInCU: 0x23327, offset: 0x23327, size: 0x8, addend: 0x0, symName: __ZNSt3__113unordered_mapINS_12basic_stringIcNS_11char_traitsIcEENS_9allocatorIcEEEEmNS_4hashIS6_EENS_8equal_toIS6_EENS4_INS_4pairIKS6_mEEEEEC2B7v160006Ev, symObjAddr: 0x1870, symBinAddr: 0x100002E38, symSize: 0x3C }
  - { offsetInCU: 0x23351, offset: 0x23351, size: 0x8, addend: 0x0, symName: __ZNSt3__112__hash_tableINS_17__hash_value_typeINS_12basic_stringIcNS_11char_traitsIcEENS_9allocatorIcEEEEmEENS_22__unordered_map_hasherIS7_S8_NS_4hashIS7_EENS_8equal_toIS7_EELb1EEENS_21__unordered_map_equalIS7_S8_SD_SB_Lb1EEENS5_IS8_EEEC1Ev, symObjAddr: 0x18AC, symBinAddr: 0x100002E74, symSize: 0x2C }
  - { offsetInCU: 0x2337D, offset: 0x2337D, size: 0x8, addend: 0x0, symName: __ZNSt3__112__hash_tableINS_17__hash_value_typeINS_12basic_stringIcNS_11char_traitsIcEENS_9allocatorIcEEEEmEENS_22__unordered_map_hasherIS7_S8_NS_4hashIS7_EENS_8equal_toIS7_EELb1EEENS_21__unordered_map_equalIS7_S8_SD_SB_Lb1EEENS5_IS8_EEEC2Ev, symObjAddr: 0x18E8, symBinAddr: 0x100002EB0, symSize: 0x7C }
  - { offsetInCU: 0x233A9, offset: 0x233A9, size: 0x8, addend: 0x0, symName: __ZNSt3__110unique_ptrIA_PNS_16__hash_node_baseIPNS_11__hash_nodeINS_17__hash_value_typeINS_12basic_stringIcNS_11char_traitsIcEENS_9allocatorIcEEEEmEEPvEEEENS_25__bucket_list_deallocatorINS7_ISF_EEEEEC1B7v160006ILb1EvEEv, symObjAddr: 0x1964, symBinAddr: 0x100002F2C, symSize: 0x2C }
  - { offsetInCU: 0x233DE, offset: 0x233DE, size: 0x8, addend: 0x0, symName: __ZNSt3__117__compressed_pairINS_16__hash_node_baseIPNS_11__hash_nodeINS_17__hash_value_typeINS_12basic_stringIcNS_11char_traitsIcEENS_9allocatorIcEEEEmEEPvEEEENS7_ISC_EEEC1B7v160006ILb1EvEEv, symObjAddr: 0x1990, symBinAddr: 0x100002F58, symSize: 0x2C }
  - { offsetInCU: 0x23419, offset: 0x23419, size: 0x8, addend: 0x0, symName: __ZNSt3__117__compressed_pairImNS_22__unordered_map_hasherINS_12basic_stringIcNS_11char_traitsIcEENS_9allocatorIcEEEENS_17__hash_value_typeIS7_mEENS_4hashIS7_EENS_8equal_toIS7_EELb1EEEEC1B7v160006IiNS_18__default_init_tagEEEOT_OT0_, symObjAddr: 0x19BC, symBinAddr: 0x100002F84, symSize: 0x3C }
  - { offsetInCU: 0x23477, offset: 0x23477, size: 0x8, addend: 0x0, symName: __ZNSt3__117__compressed_pairIfNS_21__unordered_map_equalINS_12basic_stringIcNS_11char_traitsIcEENS_9allocatorIcEEEENS_17__hash_value_typeIS7_mEENS_8equal_toIS7_EENS_4hashIS7_EELb1EEEEC1B7v160006IfNS_18__default_init_tagEEEOT_OT0_, symObjAddr: 0x19F8, symBinAddr: 0x100002FC0, symSize: 0x3C }
  - { offsetInCU: 0x234CF, offset: 0x234CF, size: 0x8, addend: 0x0, symName: __ZNSt3__110unique_ptrIA_PNS_16__hash_node_baseIPNS_11__hash_nodeINS_17__hash_value_typeINS_12basic_stringIcNS_11char_traitsIcEENS_9allocatorIcEEEEmEEPvEEEENS_25__bucket_list_deallocatorINS7_ISF_EEEEEC2B7v160006ILb1EvEEv, symObjAddr: 0x1A34, symBinAddr: 0x100002FFC, symSize: 0x3C }
  - { offsetInCU: 0x2350A, offset: 0x2350A, size: 0x8, addend: 0x0, symName: __ZNSt3__117__compressed_pairIPPNS_16__hash_node_baseIPNS_11__hash_nodeINS_17__hash_value_typeINS_12basic_stringIcNS_11char_traitsIcEENS_9allocatorIcEEEEmEEPvEEEENS_25__bucket_list_deallocatorINS7_ISF_EEEEEC1B7v160006INS_16__value_init_tagESM_EEOT_OT0_, symObjAddr: 0x1A70, symBinAddr: 0x100003038, symSize: 0x3C }
  - { offsetInCU: 0x23562, offset: 0x23562, size: 0x8, addend: 0x0, symName: __ZNSt3__117__compressed_pairIPPNS_16__hash_node_baseIPNS_11__hash_nodeINS_17__hash_value_typeINS_12basic_stringIcNS_11char_traitsIcEENS_9allocatorIcEEEEmEEPvEEEENS_25__bucket_list_deallocatorINS7_ISF_EEEEEC2B7v160006INS_16__value_init_tagESM_EEOT_OT0_, symObjAddr: 0x1AAC, symBinAddr: 0x100003074, symSize: 0x40 }
  - { offsetInCU: 0x235BA, offset: 0x235BA, size: 0x8, addend: 0x0, symName: __ZNSt3__122__compressed_pair_elemIPPNS_16__hash_node_baseIPNS_11__hash_nodeINS_17__hash_value_typeINS_12basic_stringIcNS_11char_traitsIcEENS_9allocatorIcEEEEmEEPvEEEELi0ELb0EEC2B7v160006ENS_16__value_init_tagE, symObjAddr: 0x1AEC, symBinAddr: 0x1000030B4, symSize: 0x18 }
  - { offsetInCU: 0x235EE, offset: 0x235EE, size: 0x8, addend: 0x0, symName: __ZNSt3__122__compressed_pair_elemINS_25__bucket_list_deallocatorINS_9allocatorIPNS_16__hash_node_baseIPNS_11__hash_nodeINS_17__hash_value_typeINS_12basic_stringIcNS_11char_traitsIcEENS2_IcEEEEmEEPvEEEEEEEELi1ELb0EEC2B7v160006ENS_16__value_init_tagE, symObjAddr: 0x1B04, symBinAddr: 0x1000030CC, symSize: 0x2C }
  - { offsetInCU: 0x23622, offset: 0x23622, size: 0x8, addend: 0x0, symName: __ZNSt3__125__bucket_list_deallocatorINS_9allocatorIPNS_16__hash_node_baseIPNS_11__hash_nodeINS_17__hash_value_typeINS_12basic_stringIcNS_11char_traitsIcEENS1_IcEEEEmEEPvEEEEEEEC1B7v160006Ev, symObjAddr: 0x1B30, symBinAddr: 0x1000030F8, symSize: 0x2C }
  - { offsetInCU: 0x2364C, offset: 0x2364C, size: 0x8, addend: 0x0, symName: __ZNSt3__125__bucket_list_deallocatorINS_9allocatorIPNS_16__hash_node_baseIPNS_11__hash_nodeINS_17__hash_value_typeINS_12basic_stringIcNS_11char_traitsIcEENS1_IcEEEEmEEPvEEEEEEEC2B7v160006Ev, symObjAddr: 0x1B5C, symBinAddr: 0x100003124, symSize: 0x40 }
  - { offsetInCU: 0x23676, offset: 0x23676, size: 0x8, addend: 0x0, symName: __ZNSt3__117__compressed_pairImNS_9allocatorIPNS_16__hash_node_baseIPNS_11__hash_nodeINS_17__hash_value_typeINS_12basic_stringIcNS_11char_traitsIcEENS1_IcEEEEmEEPvEEEEEEEC1B7v160006IiNS_18__default_init_tagEEEOT_OT0_, symObjAddr: 0x1B9C, symBinAddr: 0x100003164, symSize: 0x3C }
  - { offsetInCU: 0x236CE, offset: 0x236CE, size: 0x8, addend: 0x0, symName: __ZNSt3__117__compressed_pairImNS_9allocatorIPNS_16__hash_node_baseIPNS_11__hash_nodeINS_17__hash_value_typeINS_12basic_stringIcNS_11char_traitsIcEENS1_IcEEEEmEEPvEEEEEEEC2B7v160006IiNS_18__default_init_tagEEEOT_OT0_, symObjAddr: 0x1BD8, symBinAddr: 0x1000031A0, symSize: 0x40 }
  - { offsetInCU: 0x23726, offset: 0x23726, size: 0x8, addend: 0x0, symName: __ZNSt3__122__compressed_pair_elemImLi0ELb0EEC2B7v160006IivEEOT_, symObjAddr: 0x1C18, symBinAddr: 0x1000031E0, symSize: 0x24 }
  - { offsetInCU: 0x23768, offset: 0x23768, size: 0x8, addend: 0x0, symName: __ZNSt3__122__compressed_pair_elemINS_9allocatorIPNS_16__hash_node_baseIPNS_11__hash_nodeINS_17__hash_value_typeINS_12basic_stringIcNS_11char_traitsIcEENS1_IcEEEEmEEPvEEEEEELi1ELb1EEC2B7v160006ENS_18__default_init_tagE, symObjAddr: 0x1C3C, symBinAddr: 0x100003204, symSize: 0x2C }
  - { offsetInCU: 0x2379C, offset: 0x2379C, size: 0x8, addend: 0x0, symName: __ZNSt3__19allocatorIPNS_16__hash_node_baseIPNS_11__hash_nodeINS_17__hash_value_typeINS_12basic_stringIcNS_11char_traitsIcEENS0_IcEEEEmEEPvEEEEEC2B7v160006Ev, symObjAddr: 0x1C68, symBinAddr: 0x100003230, symSize: 0x2C }
  - { offsetInCU: 0x237C6, offset: 0x237C6, size: 0x8, addend: 0x0, symName: __ZNSt3__116__non_trivial_ifILb1ENS_9allocatorIPNS_16__hash_node_baseIPNS_11__hash_nodeINS_17__hash_value_typeINS_12basic_stringIcNS_11char_traitsIcEENS1_IcEEEEmEEPvEEEEEEEC2B7v160006Ev, symObjAddr: 0x1C94, symBinAddr: 0x10000325C, symSize: 0x14 }
  - { offsetInCU: 0x237F0, offset: 0x237F0, size: 0x8, addend: 0x0, symName: __ZNSt3__117__compressed_pairINS_16__hash_node_baseIPNS_11__hash_nodeINS_17__hash_value_typeINS_12basic_stringIcNS_11char_traitsIcEENS_9allocatorIcEEEEmEEPvEEEENS7_ISC_EEEC2B7v160006ILb1EvEEv, symObjAddr: 0x1CA8, symBinAddr: 0x100003270, symSize: 0x34 }
  - { offsetInCU: 0x23825, offset: 0x23825, size: 0x8, addend: 0x0, symName: __ZNSt3__122__compressed_pair_elemINS_16__hash_node_baseIPNS_11__hash_nodeINS_17__hash_value_typeINS_12basic_stringIcNS_11char_traitsIcEENS_9allocatorIcEEEEmEEPvEEEELi0ELb0EEC2B7v160006ENS_16__value_init_tagE, symObjAddr: 0x1CDC, symBinAddr: 0x1000032A4, symSize: 0x2C }
  - { offsetInCU: 0x23859, offset: 0x23859, size: 0x8, addend: 0x0, symName: __ZNSt3__122__compressed_pair_elemINS_9allocatorINS_11__hash_nodeINS_17__hash_value_typeINS_12basic_stringIcNS_11char_traitsIcEENS1_IcEEEEmEEPvEEEELi1ELb1EEC2B7v160006ENS_16__value_init_tagE, symObjAddr: 0x1D08, symBinAddr: 0x1000032D0, symSize: 0x2C }
  - { offsetInCU: 0x2388D, offset: 0x2388D, size: 0x8, addend: 0x0, symName: __ZNSt3__116__hash_node_baseIPNS_11__hash_nodeINS_17__hash_value_typeINS_12basic_stringIcNS_11char_traitsIcEENS_9allocatorIcEEEEmEEPvEEEC1B7v160006Ev, symObjAddr: 0x1D34, symBinAddr: 0x1000032FC, symSize: 0x2C }
  - { offsetInCU: 0x238B7, offset: 0x238B7, size: 0x8, addend: 0x0, symName: __ZNSt3__116__hash_node_baseIPNS_11__hash_nodeINS_17__hash_value_typeINS_12basic_stringIcNS_11char_traitsIcEENS_9allocatorIcEEEEmEEPvEEEC2B7v160006Ev, symObjAddr: 0x1D60, symBinAddr: 0x100003328, symSize: 0x18 }
  - { offsetInCU: 0x238E1, offset: 0x238E1, size: 0x8, addend: 0x0, symName: __ZNSt3__19allocatorINS_11__hash_nodeINS_17__hash_value_typeINS_12basic_stringIcNS_11char_traitsIcEENS0_IcEEEEmEEPvEEEC2B7v160006Ev, symObjAddr: 0x1D78, symBinAddr: 0x100003340, symSize: 0x2C }
  - { offsetInCU: 0x2390B, offset: 0x2390B, size: 0x8, addend: 0x0, symName: __ZNSt3__116__non_trivial_ifILb1ENS_9allocatorINS_11__hash_nodeINS_17__hash_value_typeINS_12basic_stringIcNS_11char_traitsIcEENS1_IcEEEEmEEPvEEEEEC2B7v160006Ev, symObjAddr: 0x1DA4, symBinAddr: 0x10000336C, symSize: 0x14 }
  - { offsetInCU: 0x23935, offset: 0x23935, size: 0x8, addend: 0x0, symName: __ZNSt3__117__compressed_pairImNS_22__unordered_map_hasherINS_12basic_stringIcNS_11char_traitsIcEENS_9allocatorIcEEEENS_17__hash_value_typeIS7_mEENS_4hashIS7_EENS_8equal_toIS7_EELb1EEEEC2B7v160006IiNS_18__default_init_tagEEEOT_OT0_, symObjAddr: 0x1DB8, symBinAddr: 0x100003380, symSize: 0x40 }
  - { offsetInCU: 0x2398D, offset: 0x2398D, size: 0x8, addend: 0x0, symName: __ZNSt3__122__compressed_pair_elemINS_22__unordered_map_hasherINS_12basic_stringIcNS_11char_traitsIcEENS_9allocatorIcEEEENS_17__hash_value_typeIS7_mEENS_4hashIS7_EENS_8equal_toIS7_EELb1EEELi1ELb1EEC2B7v160006ENS_18__default_init_tagE, symObjAddr: 0x1DF8, symBinAddr: 0x1000033C0, symSize: 0x2C }
  - { offsetInCU: 0x239C1, offset: 0x239C1, size: 0x8, addend: 0x0, symName: __ZNSt3__122__unordered_map_hasherINS_12basic_stringIcNS_11char_traitsIcEENS_9allocatorIcEEEENS_17__hash_value_typeIS6_mEENS_4hashIS6_EENS_8equal_toIS6_EELb1EEC2B7v160006Ev, symObjAddr: 0x1E24, symBinAddr: 0x1000033EC, symSize: 0x14 }
  - { offsetInCU: 0x239EB, offset: 0x239EB, size: 0x8, addend: 0x0, symName: __ZNSt3__117__compressed_pairIfNS_21__unordered_map_equalINS_12basic_stringIcNS_11char_traitsIcEENS_9allocatorIcEEEENS_17__hash_value_typeIS7_mEENS_8equal_toIS7_EENS_4hashIS7_EELb1EEEEC2B7v160006IfNS_18__default_init_tagEEEOT_OT0_, symObjAddr: 0x1E38, symBinAddr: 0x100003400, symSize: 0x40 }
  - { offsetInCU: 0x23A43, offset: 0x23A43, size: 0x8, addend: 0x0, symName: __ZNSt3__122__compressed_pair_elemIfLi0ELb0EEC2B7v160006IfvEEOT_, symObjAddr: 0x1E78, symBinAddr: 0x100003440, symSize: 0x24 }
  - { offsetInCU: 0x23A85, offset: 0x23A85, size: 0x8, addend: 0x0, symName: __ZNSt3__122__compressed_pair_elemINS_21__unordered_map_equalINS_12basic_stringIcNS_11char_traitsIcEENS_9allocatorIcEEEENS_17__hash_value_typeIS7_mEENS_8equal_toIS7_EENS_4hashIS7_EELb1EEELi1ELb1EEC2B7v160006ENS_18__default_init_tagE, symObjAddr: 0x1E9C, symBinAddr: 0x100003464, symSize: 0x2C }
  - { offsetInCU: 0x23AB9, offset: 0x23AB9, size: 0x8, addend: 0x0, symName: __ZNSt3__121__unordered_map_equalINS_12basic_stringIcNS_11char_traitsIcEENS_9allocatorIcEEEENS_17__hash_value_typeIS6_mEENS_8equal_toIS6_EENS_4hashIS6_EELb1EEC2B7v160006Ev, symObjAddr: 0x1EC8, symBinAddr: 0x100003490, symSize: 0x14 }
  - { offsetInCU: 0x23AE3, offset: 0x23AE3, size: 0x8, addend: 0x0, symName: __ZNSt3__113unordered_mapIm8workflowNS_4hashImEENS_8equal_toImEENS_9allocatorINS_4pairIKmS1_EEEEEC2B7v160006Ev, symObjAddr: 0x1EDC, symBinAddr: 0x1000034A4, symSize: 0x3C }
  - { offsetInCU: 0x23B0D, offset: 0x23B0D, size: 0x8, addend: 0x0, symName: __ZNSt3__112__hash_tableINS_17__hash_value_typeIm8workflowEENS_22__unordered_map_hasherImS3_NS_4hashImEENS_8equal_toImEELb1EEENS_21__unordered_map_equalImS3_S8_S6_Lb1EEENS_9allocatorIS3_EEEC1Ev, symObjAddr: 0x1F18, symBinAddr: 0x1000034E0, symSize: 0x2C }
  - { offsetInCU: 0x23B39, offset: 0x23B39, size: 0x8, addend: 0x0, symName: __ZNSt3__112__hash_tableINS_17__hash_value_typeIm8workflowEENS_22__unordered_map_hasherImS3_NS_4hashImEENS_8equal_toImEELb1EEENS_21__unordered_map_equalImS3_S8_S6_Lb1EEENS_9allocatorIS3_EEEC2Ev, symObjAddr: 0x1F54, symBinAddr: 0x10000351C, symSize: 0x7C }
  - { offsetInCU: 0x23B65, offset: 0x23B65, size: 0x8, addend: 0x0, symName: __ZNSt3__110unique_ptrIA_PNS_16__hash_node_baseIPNS_11__hash_nodeINS_17__hash_value_typeIm8workflowEEPvEEEENS_25__bucket_list_deallocatorINS_9allocatorISA_EEEEEC1B7v160006ILb1EvEEv, symObjAddr: 0x1FD0, symBinAddr: 0x100003598, symSize: 0x2C }
  - { offsetInCU: 0x23B9A, offset: 0x23B9A, size: 0x8, addend: 0x0, symName: __ZNSt3__117__compressed_pairINS_16__hash_node_baseIPNS_11__hash_nodeINS_17__hash_value_typeIm8workflowEEPvEEEENS_9allocatorIS7_EEEC1B7v160006ILb1EvEEv, symObjAddr: 0x1FFC, symBinAddr: 0x1000035C4, symSize: 0x2C }
  - { offsetInCU: 0x23BCF, offset: 0x23BCF, size: 0x8, addend: 0x0, symName: __ZNSt3__117__compressed_pairImNS_22__unordered_map_hasherImNS_17__hash_value_typeIm8workflowEENS_4hashImEENS_8equal_toImEELb1EEEEC1B7v160006IiNS_18__default_init_tagEEEOT_OT0_, symObjAddr: 0x2028, symBinAddr: 0x1000035F0, symSize: 0x3C }
  - { offsetInCU: 0x23C27, offset: 0x23C27, size: 0x8, addend: 0x0, symName: __ZNSt3__117__compressed_pairIfNS_21__unordered_map_equalImNS_17__hash_value_typeIm8workflowEENS_8equal_toImEENS_4hashImEELb1EEEEC1B7v160006IfNS_18__default_init_tagEEEOT_OT0_, symObjAddr: 0x2064, symBinAddr: 0x10000362C, symSize: 0x3C }
  - { offsetInCU: 0x23C7F, offset: 0x23C7F, size: 0x8, addend: 0x0, symName: __ZNSt3__110unique_ptrIA_PNS_16__hash_node_baseIPNS_11__hash_nodeINS_17__hash_value_typeIm8workflowEEPvEEEENS_25__bucket_list_deallocatorINS_9allocatorISA_EEEEEC2B7v160006ILb1EvEEv, symObjAddr: 0x20A0, symBinAddr: 0x100003668, symSize: 0x3C }
  - { offsetInCU: 0x23CB4, offset: 0x23CB4, size: 0x8, addend: 0x0, symName: __ZNSt3__117__compressed_pairIPPNS_16__hash_node_baseIPNS_11__hash_nodeINS_17__hash_value_typeIm8workflowEEPvEEEENS_25__bucket_list_deallocatorINS_9allocatorISA_EEEEEC1B7v160006INS_16__value_init_tagESI_EEOT_OT0_, symObjAddr: 0x20DC, symBinAddr: 0x1000036A4, symSize: 0x3C }
  - { offsetInCU: 0x23D0C, offset: 0x23D0C, size: 0x8, addend: 0x0, symName: __ZNSt3__117__compressed_pairIPPNS_16__hash_node_baseIPNS_11__hash_nodeINS_17__hash_value_typeIm8workflowEEPvEEEENS_25__bucket_list_deallocatorINS_9allocatorISA_EEEEEC2B7v160006INS_16__value_init_tagESI_EEOT_OT0_, symObjAddr: 0x2118, symBinAddr: 0x1000036E0, symSize: 0x40 }
  - { offsetInCU: 0x23D64, offset: 0x23D64, size: 0x8, addend: 0x0, symName: __ZNSt3__122__compressed_pair_elemIPPNS_16__hash_node_baseIPNS_11__hash_nodeINS_17__hash_value_typeIm8workflowEEPvEEEELi0ELb0EEC2B7v160006ENS_16__value_init_tagE, symObjAddr: 0x2158, symBinAddr: 0x100003720, symSize: 0x18 }
  - { offsetInCU: 0x23D98, offset: 0x23D98, size: 0x8, addend: 0x0, symName: __ZNSt3__122__compressed_pair_elemINS_25__bucket_list_deallocatorINS_9allocatorIPNS_16__hash_node_baseIPNS_11__hash_nodeINS_17__hash_value_typeIm8workflowEEPvEEEEEEEELi1ELb0EEC2B7v160006ENS_16__value_init_tagE, symObjAddr: 0x2170, symBinAddr: 0x100003738, symSize: 0x2C }
  - { offsetInCU: 0x23DCC, offset: 0x23DCC, size: 0x8, addend: 0x0, symName: __ZNSt3__125__bucket_list_deallocatorINS_9allocatorIPNS_16__hash_node_baseIPNS_11__hash_nodeINS_17__hash_value_typeIm8workflowEEPvEEEEEEEC1B7v160006Ev, symObjAddr: 0x219C, symBinAddr: 0x100003764, symSize: 0x2C }
  - { offsetInCU: 0x23DF6, offset: 0x23DF6, size: 0x8, addend: 0x0, symName: __ZNSt3__125__bucket_list_deallocatorINS_9allocatorIPNS_16__hash_node_baseIPNS_11__hash_nodeINS_17__hash_value_typeIm8workflowEEPvEEEEEEEC2B7v160006Ev, symObjAddr: 0x21C8, symBinAddr: 0x100003790, symSize: 0x40 }
  - { offsetInCU: 0x23E20, offset: 0x23E20, size: 0x8, addend: 0x0, symName: __ZNSt3__117__compressed_pairImNS_9allocatorIPNS_16__hash_node_baseIPNS_11__hash_nodeINS_17__hash_value_typeIm8workflowEEPvEEEEEEEC1B7v160006IiNS_18__default_init_tagEEEOT_OT0_, symObjAddr: 0x2208, symBinAddr: 0x1000037D0, symSize: 0x3C }
  - { offsetInCU: 0x23E78, offset: 0x23E78, size: 0x8, addend: 0x0, symName: __ZNSt3__117__compressed_pairImNS_9allocatorIPNS_16__hash_node_baseIPNS_11__hash_nodeINS_17__hash_value_typeIm8workflowEEPvEEEEEEEC2B7v160006IiNS_18__default_init_tagEEEOT_OT0_, symObjAddr: 0x2244, symBinAddr: 0x10000380C, symSize: 0x40 }
  - { offsetInCU: 0x23ED0, offset: 0x23ED0, size: 0x8, addend: 0x0, symName: __ZNSt3__122__compressed_pair_elemINS_9allocatorIPNS_16__hash_node_baseIPNS_11__hash_nodeINS_17__hash_value_typeIm8workflowEEPvEEEEEELi1ELb1EEC2B7v160006ENS_18__default_init_tagE, symObjAddr: 0x2284, symBinAddr: 0x10000384C, symSize: 0x2C }
  - { offsetInCU: 0x23F04, offset: 0x23F04, size: 0x8, addend: 0x0, symName: __ZNSt3__19allocatorIPNS_16__hash_node_baseIPNS_11__hash_nodeINS_17__hash_value_typeIm8workflowEEPvEEEEEC2B7v160006Ev, symObjAddr: 0x22B0, symBinAddr: 0x100003878, symSize: 0x2C }
  - { offsetInCU: 0x23F2E, offset: 0x23F2E, size: 0x8, addend: 0x0, symName: __ZNSt3__116__non_trivial_ifILb1ENS_9allocatorIPNS_16__hash_node_baseIPNS_11__hash_nodeINS_17__hash_value_typeIm8workflowEEPvEEEEEEEC2B7v160006Ev, symObjAddr: 0x22DC, symBinAddr: 0x1000038A4, symSize: 0x14 }
  - { offsetInCU: 0x23F58, offset: 0x23F58, size: 0x8, addend: 0x0, symName: __ZNSt3__117__compressed_pairINS_16__hash_node_baseIPNS_11__hash_nodeINS_17__hash_value_typeIm8workflowEEPvEEEENS_9allocatorIS7_EEEC2B7v160006ILb1EvEEv, symObjAddr: 0x22F0, symBinAddr: 0x1000038B8, symSize: 0x34 }
  - { offsetInCU: 0x23F8D, offset: 0x23F8D, size: 0x8, addend: 0x0, symName: __ZNSt3__122__compressed_pair_elemINS_16__hash_node_baseIPNS_11__hash_nodeINS_17__hash_value_typeIm8workflowEEPvEEEELi0ELb0EEC2B7v160006ENS_16__value_init_tagE, symObjAddr: 0x2324, symBinAddr: 0x1000038EC, symSize: 0x2C }
  - { offsetInCU: 0x23FC1, offset: 0x23FC1, size: 0x8, addend: 0x0, symName: __ZNSt3__122__compressed_pair_elemINS_9allocatorINS_11__hash_nodeINS_17__hash_value_typeIm8workflowEEPvEEEELi1ELb1EEC2B7v160006ENS_16__value_init_tagE, symObjAddr: 0x2350, symBinAddr: 0x100003918, symSize: 0x2C }
  - { offsetInCU: 0x23FF5, offset: 0x23FF5, size: 0x8, addend: 0x0, symName: __ZNSt3__116__hash_node_baseIPNS_11__hash_nodeINS_17__hash_value_typeIm8workflowEEPvEEEC1B7v160006Ev, symObjAddr: 0x237C, symBinAddr: 0x100003944, symSize: 0x2C }
  - { offsetInCU: 0x2401F, offset: 0x2401F, size: 0x8, addend: 0x0, symName: __ZNSt3__116__hash_node_baseIPNS_11__hash_nodeINS_17__hash_value_typeIm8workflowEEPvEEEC2B7v160006Ev, symObjAddr: 0x23A8, symBinAddr: 0x100003970, symSize: 0x18 }
  - { offsetInCU: 0x24049, offset: 0x24049, size: 0x8, addend: 0x0, symName: __ZNSt3__19allocatorINS_11__hash_nodeINS_17__hash_value_typeIm8workflowEEPvEEEC2B7v160006Ev, symObjAddr: 0x23C0, symBinAddr: 0x100003988, symSize: 0x2C }
  - { offsetInCU: 0x24073, offset: 0x24073, size: 0x8, addend: 0x0, symName: __ZNSt3__116__non_trivial_ifILb1ENS_9allocatorINS_11__hash_nodeINS_17__hash_value_typeIm8workflowEEPvEEEEEC2B7v160006Ev, symObjAddr: 0x23EC, symBinAddr: 0x1000039B4, symSize: 0x14 }
  - { offsetInCU: 0x2409D, offset: 0x2409D, size: 0x8, addend: 0x0, symName: __ZNSt3__117__compressed_pairImNS_22__unordered_map_hasherImNS_17__hash_value_typeIm8workflowEENS_4hashImEENS_8equal_toImEELb1EEEEC2B7v160006IiNS_18__default_init_tagEEEOT_OT0_, symObjAddr: 0x2400, symBinAddr: 0x1000039C8, symSize: 0x40 }
  - { offsetInCU: 0x240F5, offset: 0x240F5, size: 0x8, addend: 0x0, symName: __ZNSt3__122__compressed_pair_elemINS_22__unordered_map_hasherImNS_17__hash_value_typeIm8workflowEENS_4hashImEENS_8equal_toImEELb1EEELi1ELb1EEC2B7v160006ENS_18__default_init_tagE, symObjAddr: 0x2440, symBinAddr: 0x100003A08, symSize: 0x2C }
  - { offsetInCU: 0x24129, offset: 0x24129, size: 0x8, addend: 0x0, symName: __ZNSt3__122__unordered_map_hasherImNS_17__hash_value_typeIm8workflowEENS_4hashImEENS_8equal_toImEELb1EEC2B7v160006Ev, symObjAddr: 0x246C, symBinAddr: 0x100003A34, symSize: 0x14 }
  - { offsetInCU: 0x24153, offset: 0x24153, size: 0x8, addend: 0x0, symName: __ZNSt3__117__compressed_pairIfNS_21__unordered_map_equalImNS_17__hash_value_typeIm8workflowEENS_8equal_toImEENS_4hashImEELb1EEEEC2B7v160006IfNS_18__default_init_tagEEEOT_OT0_, symObjAddr: 0x2480, symBinAddr: 0x100003A48, symSize: 0x40 }
  - { offsetInCU: 0x241AB, offset: 0x241AB, size: 0x8, addend: 0x0, symName: __ZNSt3__122__compressed_pair_elemINS_21__unordered_map_equalImNS_17__hash_value_typeIm8workflowEENS_8equal_toImEENS_4hashImEELb1EEELi1ELb1EEC2B7v160006ENS_18__default_init_tagE, symObjAddr: 0x24C0, symBinAddr: 0x100003A88, symSize: 0x2C }
  - { offsetInCU: 0x241DF, offset: 0x241DF, size: 0x8, addend: 0x0, symName: __ZNSt3__121__unordered_map_equalImNS_17__hash_value_typeIm8workflowEENS_8equal_toImEENS_4hashImEELb1EEC2B7v160006Ev, symObjAddr: 0x24EC, symBinAddr: 0x100003AB4, symSize: 0x14 }
  - { offsetInCU: 0x24221, offset: 0x24221, size: 0x8, addend: 0x0, symName: __ZNSt3__112__hash_tableINS_17__hash_value_typeINS_12basic_stringIcNS_11char_traitsIcEENS_9allocatorIcEEEEmEENS_22__unordered_map_hasherIS7_S8_NS_4hashIS7_EENS_8equal_toIS7_EELb1EEENS_21__unordered_map_equalIS7_S8_SD_SB_Lb1EEENS5_IS8_EEE25__emplace_unique_key_argsIS7_JRKNS_21piecewise_construct_tENS_5tupleIJOS7_EEENSN_IJEEEEEENS_4pairINS_15__hash_iteratorIPNS_11__hash_nodeIS8_PvEEEEbEERKT_DpOT0_, symObjAddr: 0x2500, symBinAddr: 0x100003AC8, symSize: 0x4D0 }
  - { offsetInCU: 0x2432B, offset: 0x2432B, size: 0x8, addend: 0x0, symName: __ZNKSt3__115__hash_iteratorIPNS_11__hash_nodeINS_17__hash_value_typeINS_12basic_stringIcNS_11char_traitsIcEENS_9allocatorIcEEEEmEEPvEEEptB7v160006Ev, symObjAddr: 0x2A00, symBinAddr: 0x100003FC8, symSize: 0x30 }
  - { offsetInCU: 0x24351, offset: 0x24351, size: 0x8, addend: 0x0, symName: __ZNSt3__117__hash_value_typeINS_12basic_stringIcNS_11char_traitsIcEENS_9allocatorIcEEEEmE11__get_valueB7v160006Ev, symObjAddr: 0x2A30, symBinAddr: 0x100003FF8, symSize: 0x24 }
  - { offsetInCU: 0x24377, offset: 0x24377, size: 0x8, addend: 0x0, symName: __ZNSt3__112__hash_tableINS_17__hash_value_typeINS_12basic_stringIcNS_11char_traitsIcEENS_9allocatorIcEEEEmEENS_22__unordered_map_hasherIS7_S8_NS_4hashIS7_EENS_8equal_toIS7_EELb1EEENS_21__unordered_map_equalIS7_S8_SD_SB_Lb1EEENS5_IS8_EEE13hash_functionB7v160006Ev, symObjAddr: 0x2A54, symBinAddr: 0x10000401C, symSize: 0x28 }
  - { offsetInCU: 0x2439D, offset: 0x2439D, size: 0x8, addend: 0x0, symName: __ZNKSt3__122__unordered_map_hasherINS_12basic_stringIcNS_11char_traitsIcEENS_9allocatorIcEEEENS_17__hash_value_typeIS6_mEENS_4hashIS6_EENS_8equal_toIS6_EELb1EEclB7v160006ERKS6_, symObjAddr: 0x2A7C, symBinAddr: 0x100004044, symSize: 0x2C }
  - { offsetInCU: 0x243D2, offset: 0x243D2, size: 0x8, addend: 0x0, symName: __ZNKSt3__112__hash_tableINS_17__hash_value_typeINS_12basic_stringIcNS_11char_traitsIcEENS_9allocatorIcEEEEmEENS_22__unordered_map_hasherIS7_S8_NS_4hashIS7_EENS_8equal_toIS7_EELb1EEENS_21__unordered_map_equalIS7_S8_SD_SB_Lb1EEENS5_IS8_EEE12bucket_countB7v160006Ev, symObjAddr: 0x2AA8, symBinAddr: 0x100004070, symSize: 0x28 }
  - { offsetInCU: 0x243F8, offset: 0x243F8, size: 0x8, addend: 0x0, symName: __ZNKSt3__110unique_ptrIA_PNS_16__hash_node_baseIPNS_11__hash_nodeINS_17__hash_value_typeINS_12basic_stringIcNS_11char_traitsIcEENS_9allocatorIcEEEEmEEPvEEEENS_25__bucket_list_deallocatorINS7_ISF_EEEEEixB7v160006Em, symObjAddr: 0x2B68, symBinAddr: 0x100004130, symSize: 0x34 }
  - { offsetInCU: 0x2442D, offset: 0x2442D, size: 0x8, addend: 0x0, symName: __ZNKSt3__116__hash_node_baseIPNS_11__hash_nodeINS_17__hash_value_typeINS_12basic_stringIcNS_11char_traitsIcEENS_9allocatorIcEEEEmEEPvEEE6__hashB7v160006Ev, symObjAddr: 0x2B9C, symBinAddr: 0x100004164, symSize: 0x18 }
  - { offsetInCU: 0x24453, offset: 0x24453, size: 0x8, addend: 0x0, symName: __ZNSt3__112__hash_tableINS_17__hash_value_typeINS_12basic_stringIcNS_11char_traitsIcEENS_9allocatorIcEEEEmEENS_22__unordered_map_hasherIS7_S8_NS_4hashIS7_EENS_8equal_toIS7_EELb1EEENS_21__unordered_map_equalIS7_S8_SD_SB_Lb1EEENS5_IS8_EEE6key_eqB7v160006Ev, symObjAddr: 0x2BB4, symBinAddr: 0x10000417C, symSize: 0x28 }
  - { offsetInCU: 0x24479, offset: 0x24479, size: 0x8, addend: 0x0, symName: __ZNKSt3__121__unordered_map_equalINS_12basic_stringIcNS_11char_traitsIcEENS_9allocatorIcEEEENS_17__hash_value_typeIS6_mEENS_8equal_toIS6_EENS_4hashIS6_EELb1EEclB7v160006ERKS8_RKS6_, symObjAddr: 0x2BDC, symBinAddr: 0x1000041A4, symSize: 0x48 }
  - { offsetInCU: 0x244BD, offset: 0x244BD, size: 0x8, addend: 0x0, symName: __ZNSt3__116__hash_node_baseIPNS_11__hash_nodeINS_17__hash_value_typeINS_12basic_stringIcNS_11char_traitsIcEENS_9allocatorIcEEEEmEEPvEEE8__upcastB7v160006Ev, symObjAddr: 0x2C24, symBinAddr: 0x1000041EC, symSize: 0x24 }
  - { offsetInCU: 0x244E3, offset: 0x244E3, size: 0x8, addend: 0x0, symName: __ZNSt3__112__hash_tableINS_17__hash_value_typeINS_12basic_stringIcNS_11char_traitsIcEENS_9allocatorIcEEEEmEENS_22__unordered_map_hasherIS7_S8_NS_4hashIS7_EENS_8equal_toIS7_EELb1EEENS_21__unordered_map_equalIS7_S8_SD_SB_Lb1EEENS5_IS8_EEE21__construct_node_hashIRKNS_21piecewise_construct_tEJNS_5tupleIJOS7_EEENSN_IJEEEEEENS_10unique_ptrINS_11__hash_nodeIS8_PvEENS_22__hash_node_destructorINS5_ISU_EEEEEEmOT_DpOT0_, symObjAddr: 0x2C48, symBinAddr: 0x100004210, symSize: 0x150 }
  - { offsetInCU: 0x2457F, offset: 0x2457F, size: 0x8, addend: 0x0, symName: __ZNSt3__112__hash_tableINS_17__hash_value_typeINS_12basic_stringIcNS_11char_traitsIcEENS_9allocatorIcEEEEmEENS_22__unordered_map_hasherIS7_S8_NS_4hashIS7_EENS_8equal_toIS7_EELb1EEENS_21__unordered_map_equalIS7_S8_SD_SB_Lb1EEENS5_IS8_EEE4sizeB7v160006Ev, symObjAddr: 0x2D98, symBinAddr: 0x100004360, symSize: 0x28 }
  - { offsetInCU: 0x245A5, offset: 0x245A5, size: 0x8, addend: 0x0, symName: __ZNSt3__112__hash_tableINS_17__hash_value_typeINS_12basic_stringIcNS_11char_traitsIcEENS_9allocatorIcEEEEmEENS_22__unordered_map_hasherIS7_S8_NS_4hashIS7_EENS_8equal_toIS7_EELb1EEENS_21__unordered_map_equalIS7_S8_SD_SB_Lb1EEENS5_IS8_EEE15max_load_factorB7v160006Ev, symObjAddr: 0x2DC0, symBinAddr: 0x100004388, symSize: 0x28 }
  - { offsetInCU: 0x245CB, offset: 0x245CB, size: 0x8, addend: 0x0, symName: __ZNSt3__112__hash_tableINS_17__hash_value_typeINS_12basic_stringIcNS_11char_traitsIcEENS_9allocatorIcEEEEmEENS_22__unordered_map_hasherIS7_S8_NS_4hashIS7_EENS_8equal_toIS7_EELb1EEENS_21__unordered_map_equalIS7_S8_SD_SB_Lb1EEENS5_IS8_EEE15__rehash_uniqueB7v160006Em, symObjAddr: 0x2DE8, symBinAddr: 0x1000043B0, symSize: 0x2C }
  - { offsetInCU: 0x245FF, offset: 0x245FF, size: 0x8, addend: 0x0, symName: __Z4ceilB7v160006f, symObjAddr: 0x2E90, symBinAddr: 0x100004458, symSize: 0x18 }
  - { offsetInCU: 0x2462E, offset: 0x2462E, size: 0x8, addend: 0x0, symName: __ZNSt3__117__compressed_pairINS_16__hash_node_baseIPNS_11__hash_nodeINS_17__hash_value_typeINS_12basic_stringIcNS_11char_traitsIcEENS_9allocatorIcEEEEmEEPvEEEENS7_ISC_EEE5firstB7v160006Ev, symObjAddr: 0x2EA8, symBinAddr: 0x100004470, symSize: 0x24 }
  - { offsetInCU: 0x24654, offset: 0x24654, size: 0x8, addend: 0x0, symName: __ZNSt3__116__hash_node_baseIPNS_11__hash_nodeINS_17__hash_value_typeINS_12basic_stringIcNS_11char_traitsIcEENS_9allocatorIcEEEEmEEPvEEE5__ptrB7v160006Ev, symObjAddr: 0x2ECC, symBinAddr: 0x100004494, symSize: 0x24 }
  - { offsetInCU: 0x2467A, offset: 0x2467A, size: 0x8, addend: 0x0, symName: __ZNKSt3__110unique_ptrINS_11__hash_nodeINS_17__hash_value_typeINS_12basic_stringIcNS_11char_traitsIcEENS_9allocatorIcEEEEmEEPvEENS_22__hash_node_destructorINS6_ISB_EEEEEptB7v160006Ev, symObjAddr: 0x2EF0, symBinAddr: 0x1000044B8, symSize: 0x28 }
  - { offsetInCU: 0x246A0, offset: 0x246A0, size: 0x8, addend: 0x0, symName: __ZNKSt3__110unique_ptrINS_11__hash_nodeINS_17__hash_value_typeINS_12basic_stringIcNS_11char_traitsIcEENS_9allocatorIcEEEEmEEPvEENS_22__hash_node_destructorINS6_ISB_EEEEE3getB7v160006Ev, symObjAddr: 0x2F18, symBinAddr: 0x1000044E0, symSize: 0x28 }
  - { offsetInCU: 0x246C6, offset: 0x246C6, size: 0x8, addend: 0x0, symName: __ZNSt3__110unique_ptrINS_11__hash_nodeINS_17__hash_value_typeINS_12basic_stringIcNS_11char_traitsIcEENS_9allocatorIcEEEEmEEPvEENS_22__hash_node_destructorINS6_ISB_EEEEE7releaseB7v160006Ev, symObjAddr: 0x2F40, symBinAddr: 0x100004508, symSize: 0x44 }
  - { offsetInCU: 0x246FB, offset: 0x246FB, size: 0x8, addend: 0x0, symName: __ZNSt3__110unique_ptrINS_11__hash_nodeINS_17__hash_value_typeINS_12basic_stringIcNS_11char_traitsIcEENS_9allocatorIcEEEEmEEPvEENS_22__hash_node_destructorINS6_ISB_EEEEED1B7v160006Ev, symObjAddr: 0x2F84, symBinAddr: 0x10000454C, symSize: 0x2C }
  - { offsetInCU: 0x24725, offset: 0x24725, size: 0x8, addend: 0x0, symName: __ZNSt3__115__hash_iteratorIPNS_11__hash_nodeINS_17__hash_value_typeINS_12basic_stringIcNS_11char_traitsIcEENS_9allocatorIcEEEEmEEPvEEEC1B7v160006EPNS_16__hash_node_baseISC_EEPKv, symObjAddr: 0x2FB0, symBinAddr: 0x100004578, symSize: 0x3C }
  - { offsetInCU: 0x24773, offset: 0x24773, size: 0x8, addend: 0x0, symName: __ZNSt3__14pairINS_15__hash_iteratorIPNS_11__hash_nodeINS_17__hash_value_typeINS_12basic_stringIcNS_11char_traitsIcEENS_9allocatorIcEEEEmEEPvEEEEbEC1B7v160006ISE_RbLSB_0EEEOT_OT0_, symObjAddr: 0x2FEC, symBinAddr: 0x1000045B4, symSize: 0x3C }
  - { offsetInCU: 0x247D1, offset: 0x247D1, size: 0x8, addend: 0x0, symName: __ZNSt3__117__compressed_pairImNS_22__unordered_map_hasherINS_12basic_stringIcNS_11char_traitsIcEENS_9allocatorIcEEEENS_17__hash_value_typeIS7_mEENS_4hashIS7_EENS_8equal_toIS7_EELb1EEEE6secondB7v160006Ev, symObjAddr: 0x3028, symBinAddr: 0x1000045F0, symSize: 0x24 }
  - { offsetInCU: 0x247F7, offset: 0x247F7, size: 0x8, addend: 0x0, symName: __ZNSt3__122__compressed_pair_elemINS_22__unordered_map_hasherINS_12basic_stringIcNS_11char_traitsIcEENS_9allocatorIcEEEENS_17__hash_value_typeIS7_mEENS_4hashIS7_EENS_8equal_toIS7_EELb1EEELi1ELb1EE5__getB7v160006Ev, symObjAddr: 0x304C, symBinAddr: 0x100004614, symSize: 0x14 }
  - { offsetInCU: 0x2481D, offset: 0x2481D, size: 0x8, addend: 0x0, symName: __ZNKSt3__113__string_hashIcNS_9allocatorIcEEEclERKNS_12basic_stringIcNS_11char_traitsIcEES2_EE, symObjAddr: 0x3060, symBinAddr: 0x100004628, symSize: 0x64 }
  - { offsetInCU: 0x24852, offset: 0x24852, size: 0x8, addend: 0x0, symName: __ZNKSt3__112basic_stringIcNS_11char_traitsIcEENS_9allocatorIcEEE4dataB7v160006Ev, symObjAddr: 0x3100, symBinAddr: 0x1000046C8, symSize: 0x28 }
  - { offsetInCU: 0x24878, offset: 0x24878, size: 0x8, addend: 0x0, symName: __ZNKSt3__112basic_stringIcNS_11char_traitsIcEENS_9allocatorIcEEE4sizeB7v160006Ev, symObjAddr: 0x3128, symBinAddr: 0x1000046F0, symSize: 0x54 }
  - { offsetInCU: 0x2489E, offset: 0x2489E, size: 0x8, addend: 0x0, symName: __ZNSt3__121__murmur2_or_cityhashImLm64EEclEPKvm, symObjAddr: 0x317C, symBinAddr: 0x100004744, symSize: 0x410 }
  - { offsetInCU: 0x24939, offset: 0x24939, size: 0x8, addend: 0x0, symName: __ZNSt3__121__murmur2_or_cityhashImLm64EE18__hash_len_0_to_16EPKcm, symObjAddr: 0x358C, symBinAddr: 0x100004B54, symSize: 0x1C0 }
  - { offsetInCU: 0x24A12, offset: 0x24A12, size: 0x8, addend: 0x0, symName: __ZNSt3__121__murmur2_or_cityhashImLm64EE19__hash_len_17_to_32EPKcm, symObjAddr: 0x374C, symBinAddr: 0x100004D14, symSize: 0x130 }
  - { offsetInCU: 0x24A7B, offset: 0x24A7B, size: 0x8, addend: 0x0, symName: __ZNSt3__121__murmur2_or_cityhashImLm64EE19__hash_len_33_to_64EPKcm, symObjAddr: 0x387C, symBinAddr: 0x100004E44, symSize: 0x2B8 }
  - { offsetInCU: 0x24B2D, offset: 0x24B2D, size: 0x8, addend: 0x0, symName: __ZNSt3__121__murmur2_or_cityhashImLm64EE13__hash_len_16Emm, symObjAddr: 0x3B54, symBinAddr: 0x10000511C, symSize: 0x80 }
  - { offsetInCU: 0x24B88, offset: 0x24B88, size: 0x8, addend: 0x0, symName: __ZNSt3__121__murmur2_or_cityhashImLm64EE29__weak_hash_len_32_with_seedsEPKcmm, symObjAddr: 0x3BD4, symBinAddr: 0x10000519C, symSize: 0x88 }
  - { offsetInCU: 0x24BC7, offset: 0x24BC7, size: 0x8, addend: 0x0, symName: __ZNSt3__121__murmur2_or_cityhashImLm64EE8__rotateEmi, symObjAddr: 0x3C5C, symBinAddr: 0x100005224, symSize: 0x64 }
  - { offsetInCU: 0x24BF8, offset: 0x24BF8, size: 0x8, addend: 0x0, symName: __ZNSt3__14pairImmEaSB7v160006EOS1_, symObjAddr: 0x3CC0, symBinAddr: 0x100005288, symSize: 0x30 }
  - { offsetInCU: 0x24C2D, offset: 0x24C2D, size: 0x8, addend: 0x0, symName: __ZNSt3__121__murmur2_or_cityhashImLm64EE11__shift_mixEm, symObjAddr: 0x3D2C, symBinAddr: 0x1000052F4, symSize: 0x1C }
  - { offsetInCU: 0x24C50, offset: 0x24C50, size: 0x8, addend: 0x0, symName: __ZNSt3__121__murmur2_or_cityhashImLm64EE22__rotate_by_at_least_1Emi, symObjAddr: 0x3D48, symBinAddr: 0x100005310, symSize: 0x38 }
  - { offsetInCU: 0x24C81, offset: 0x24C81, size: 0x8, addend: 0x0, symName: __ZNSt3__121__murmur2_or_cityhashImLm64EE29__weak_hash_len_32_with_seedsEmmmmmm, symObjAddr: 0x3DA0, symBinAddr: 0x100005368, symSize: 0xD8 }
  - { offsetInCU: 0x24CF8, offset: 0x24CF8, size: 0x8, addend: 0x0, symName: __ZNSt3__14pairImmEC1B7v160006ImmLPv0EEEOT_OT0_, symObjAddr: 0x3E78, symBinAddr: 0x100005440, symSize: 0x3C }
  - { offsetInCU: 0x24D56, offset: 0x24D56, size: 0x8, addend: 0x0, symName: __ZNSt3__14pairImmEC2B7v160006ImmLPv0EEEOT_OT0_, symObjAddr: 0x3EB4, symBinAddr: 0x10000547C, symSize: 0x34 }
  - { offsetInCU: 0x24DB4, offset: 0x24DB4, size: 0x8, addend: 0x0, symName: __ZNKSt3__112basic_stringIcNS_11char_traitsIcEENS_9allocatorIcEEE13__get_pointerB7v160006Ev, symObjAddr: 0x3EFC, symBinAddr: 0x1000054C4, symSize: 0x54 }
  - { offsetInCU: 0x24DDA, offset: 0x24DDA, size: 0x8, addend: 0x0, symName: __ZNKSt3__112basic_stringIcNS_11char_traitsIcEENS_9allocatorIcEEE9__is_longB7v160006Ev, symObjAddr: 0x3F50, symBinAddr: 0x100005518, symSize: 0x38 }
  - { offsetInCU: 0x24E00, offset: 0x24E00, size: 0x8, addend: 0x0, symName: __ZNKSt3__112basic_stringIcNS_11char_traitsIcEENS_9allocatorIcEEE18__get_long_pointerB7v160006Ev, symObjAddr: 0x3F88, symBinAddr: 0x100005550, symSize: 0x28 }
  - { offsetInCU: 0x24E26, offset: 0x24E26, size: 0x8, addend: 0x0, symName: __ZNKSt3__112basic_stringIcNS_11char_traitsIcEENS_9allocatorIcEEE19__get_short_pointerB7v160006Ev, symObjAddr: 0x3FB0, symBinAddr: 0x100005578, symSize: 0x28 }
  - { offsetInCU: 0x24E4C, offset: 0x24E4C, size: 0x8, addend: 0x0, symName: __ZNKSt3__117__compressed_pairINS_12basic_stringIcNS_11char_traitsIcEENS_9allocatorIcEEE5__repES5_E5firstB7v160006Ev, symObjAddr: 0x3FD8, symBinAddr: 0x1000055A0, symSize: 0x24 }
  - { offsetInCU: 0x24E72, offset: 0x24E72, size: 0x8, addend: 0x0, symName: __ZNKSt3__122__compressed_pair_elemINS_12basic_stringIcNS_11char_traitsIcEENS_9allocatorIcEEE5__repELi0ELb0EE5__getB7v160006Ev, symObjAddr: 0x3FFC, symBinAddr: 0x1000055C4, symSize: 0x14 }
  - { offsetInCU: 0x24E98, offset: 0x24E98, size: 0x8, addend: 0x0, symName: __ZNSt3__114pointer_traitsIPKcE10pointer_toB7v160006ERS1_, symObjAddr: 0x4010, symBinAddr: 0x1000055D8, symSize: 0x14 }
  - { offsetInCU: 0x24EBB, offset: 0x24EBB, size: 0x8, addend: 0x0, symName: __ZNKSt3__112basic_stringIcNS_11char_traitsIcEENS_9allocatorIcEEE15__get_long_sizeB7v160006Ev, symObjAddr: 0x4024, symBinAddr: 0x1000055EC, symSize: 0x28 }
  - { offsetInCU: 0x24EE1, offset: 0x24EE1, size: 0x8, addend: 0x0, symName: __ZNKSt3__112basic_stringIcNS_11char_traitsIcEENS_9allocatorIcEEE16__get_short_sizeB7v160006Ev, symObjAddr: 0x404C, symBinAddr: 0x100005614, symSize: 0x34 }
  - { offsetInCU: 0x24F07, offset: 0x24F07, size: 0x8, addend: 0x0, symName: __ZNKSt3__110unique_ptrIA_PNS_16__hash_node_baseIPNS_11__hash_nodeINS_17__hash_value_typeINS_12basic_stringIcNS_11char_traitsIcEENS_9allocatorIcEEEEmEEPvEEEENS_25__bucket_list_deallocatorINS7_ISF_EEEEE11get_deleterB7v160006Ev, symObjAddr: 0x4080, symBinAddr: 0x100005648, symSize: 0x24 }
  - { offsetInCU: 0x24F2D, offset: 0x24F2D, size: 0x8, addend: 0x0, symName: __ZNKSt3__125__bucket_list_deallocatorINS_9allocatorIPNS_16__hash_node_baseIPNS_11__hash_nodeINS_17__hash_value_typeINS_12basic_stringIcNS_11char_traitsIcEENS1_IcEEEEmEEPvEEEEEEE4sizeB7v160006Ev, symObjAddr: 0x40A4, symBinAddr: 0x10000566C, symSize: 0x28 }
  - { offsetInCU: 0x24F53, offset: 0x24F53, size: 0x8, addend: 0x0, symName: __ZNKSt3__117__compressed_pairIPPNS_16__hash_node_baseIPNS_11__hash_nodeINS_17__hash_value_typeINS_12basic_stringIcNS_11char_traitsIcEENS_9allocatorIcEEEEmEEPvEEEENS_25__bucket_list_deallocatorINS7_ISF_EEEEE6secondB7v160006Ev, symObjAddr: 0x40CC, symBinAddr: 0x100005694, symSize: 0x28 }
  - { offsetInCU: 0x24F79, offset: 0x24F79, size: 0x8, addend: 0x0, symName: __ZNKSt3__122__compressed_pair_elemINS_25__bucket_list_deallocatorINS_9allocatorIPNS_16__hash_node_baseIPNS_11__hash_nodeINS_17__hash_value_typeINS_12basic_stringIcNS_11char_traitsIcEENS2_IcEEEEmEEPvEEEEEEEELi1ELb0EE5__getB7v160006Ev, symObjAddr: 0x40F4, symBinAddr: 0x1000056BC, symSize: 0x14 }
  - { offsetInCU: 0x24F9F, offset: 0x24F9F, size: 0x8, addend: 0x0, symName: __ZNKSt3__117__compressed_pairImNS_9allocatorIPNS_16__hash_node_baseIPNS_11__hash_nodeINS_17__hash_value_typeINS_12basic_stringIcNS_11char_traitsIcEENS1_IcEEEEmEEPvEEEEEEE5firstB7v160006Ev, symObjAddr: 0x4108, symBinAddr: 0x1000056D0, symSize: 0x24 }
  - { offsetInCU: 0x24FC5, offset: 0x24FC5, size: 0x8, addend: 0x0, symName: __ZNKSt3__122__compressed_pair_elemImLi0ELb0EE5__getB7v160006Ev, symObjAddr: 0x412C, symBinAddr: 0x1000056F4, symSize: 0x14 }
  - { offsetInCU: 0x24FEB, offset: 0x24FEB, size: 0x8, addend: 0x0, symName: __ZNKSt3__117__compressed_pairIPPNS_16__hash_node_baseIPNS_11__hash_nodeINS_17__hash_value_typeINS_12basic_stringIcNS_11char_traitsIcEENS_9allocatorIcEEEEmEEPvEEEENS_25__bucket_list_deallocatorINS7_ISF_EEEEE5firstB7v160006Ev, symObjAddr: 0x4140, symBinAddr: 0x100005708, symSize: 0x24 }
  - { offsetInCU: 0x25011, offset: 0x25011, size: 0x8, addend: 0x0, symName: __ZNKSt3__122__compressed_pair_elemIPPNS_16__hash_node_baseIPNS_11__hash_nodeINS_17__hash_value_typeINS_12basic_stringIcNS_11char_traitsIcEENS_9allocatorIcEEEEmEEPvEEEELi0ELb0EE5__getB7v160006Ev, symObjAddr: 0x4164, symBinAddr: 0x10000572C, symSize: 0x14 }
  - { offsetInCU: 0x25037, offset: 0x25037, size: 0x8, addend: 0x0, symName: __ZNSt3__117__compressed_pairIfNS_21__unordered_map_equalINS_12basic_stringIcNS_11char_traitsIcEENS_9allocatorIcEEEENS_17__hash_value_typeIS7_mEENS_8equal_toIS7_EENS_4hashIS7_EELb1EEEE6secondB7v160006Ev, symObjAddr: 0x4178, symBinAddr: 0x100005740, symSize: 0x24 }
  - { offsetInCU: 0x2505D, offset: 0x2505D, size: 0x8, addend: 0x0, symName: __ZNSt3__122__compressed_pair_elemINS_21__unordered_map_equalINS_12basic_stringIcNS_11char_traitsIcEENS_9allocatorIcEEEENS_17__hash_value_typeIS7_mEENS_8equal_toIS7_EENS_4hashIS7_EELb1EEELi1ELb1EE5__getB7v160006Ev, symObjAddr: 0x419C, symBinAddr: 0x100005764, symSize: 0x14 }
  - { offsetInCU: 0x25083, offset: 0x25083, size: 0x8, addend: 0x0, symName: __ZNKSt3__18equal_toINS_12basic_stringIcNS_11char_traitsIcEENS_9allocatorIcEEEEEclB7v160006ERKS6_S9_, symObjAddr: 0x41B0, symBinAddr: 0x100005778, symSize: 0x34 }
  - { offsetInCU: 0x250C7, offset: 0x250C7, size: 0x8, addend: 0x0, symName: __ZNKSt3__117__hash_value_typeINS_12basic_stringIcNS_11char_traitsIcEENS_9allocatorIcEEEEmE11__get_valueB7v160006Ev, symObjAddr: 0x41E4, symBinAddr: 0x1000057AC, symSize: 0x24 }
  - { offsetInCU: 0x250ED, offset: 0x250ED, size: 0x8, addend: 0x0, symName: __ZNSt3__111char_traitsIcE7compareEPKcS3_m, symObjAddr: 0x4350, symBinAddr: 0x100005918, symSize: 0x6C }
  - { offsetInCU: 0x2512C, offset: 0x2512C, size: 0x8, addend: 0x0, symName: __ZNSt3__114pointer_traitsIPNS_16__hash_node_baseIPNS_11__hash_nodeINS_17__hash_value_typeINS_12basic_stringIcNS_11char_traitsIcEENS_9allocatorIcEEEEmEEPvEEEEE10pointer_toB7v160006ERSE_, symObjAddr: 0x4428, symBinAddr: 0x1000059F0, symSize: 0x14 }
  - { offsetInCU: 0x2514F, offset: 0x2514F, size: 0x8, addend: 0x0, symName: __ZNSt3__112__hash_tableINS_17__hash_value_typeINS_12basic_stringIcNS_11char_traitsIcEENS_9allocatorIcEEEEmEENS_22__unordered_map_hasherIS7_S8_NS_4hashIS7_EENS_8equal_toIS7_EELb1EEENS_21__unordered_map_equalIS7_S8_SD_SB_Lb1EEENS5_IS8_EEE12__node_allocB7v160006Ev, symObjAddr: 0x443C, symBinAddr: 0x100005A04, symSize: 0x28 }
  - { offsetInCU: 0x25175, offset: 0x25175, size: 0x8, addend: 0x0, symName: __ZNSt3__116allocator_traitsINS_9allocatorINS_11__hash_nodeINS_17__hash_value_typeINS_12basic_stringIcNS_11char_traitsIcEENS1_IcEEEEmEEPvEEEEE8allocateB7v160006ERSC_m, symObjAddr: 0x4464, symBinAddr: 0x100005A2C, symSize: 0x2C }
  - { offsetInCU: 0x251A8, offset: 0x251A8, size: 0x8, addend: 0x0, symName: __ZNSt3__122__hash_node_destructorINS_9allocatorINS_11__hash_nodeINS_17__hash_value_typeINS_12basic_stringIcNS_11char_traitsIcEENS1_IcEEEEmEEPvEEEEEC1B7v160006ERSC_b, symObjAddr: 0x4490, symBinAddr: 0x100005A58, symSize: 0x48 }
  - { offsetInCU: 0x251F6, offset: 0x251F6, size: 0x8, addend: 0x0, symName: __ZNSt3__110unique_ptrINS_11__hash_nodeINS_17__hash_value_typeINS_12basic_stringIcNS_11char_traitsIcEENS_9allocatorIcEEEEmEEPvEENS_22__hash_node_destructorINS6_ISB_EEEEEC1B7v160006ILb1EvEEPSB_NS_16__dependent_typeINS_27__unique_ptr_deleter_sfinaeISE_EEXT_EE20__good_rval_ref_typeE, symObjAddr: 0x44D8, symBinAddr: 0x100005AA0, symSize: 0x3C }
  - { offsetInCU: 0x25247, offset: 0x25247, size: 0x8, addend: 0x0, symName: __ZNSt3__116allocator_traitsINS_9allocatorINS_11__hash_nodeINS_17__hash_value_typeINS_12basic_stringIcNS_11char_traitsIcEENS1_IcEEEEmEEPvEEEEE9constructB7v160006INS_4pairIKS8_mEEJRKNS_21piecewise_construct_tENS_5tupleIJOS8_EEENSL_IJEEEEvvEEvRSC_PT_DpOT0_, symObjAddr: 0x4514, symBinAddr: 0x100005ADC, symSize: 0x40 }
  - { offsetInCU: 0x252C3, offset: 0x252C3, size: 0x8, addend: 0x0, symName: __ZNSt3__122__hash_key_value_typesINS_17__hash_value_typeINS_12basic_stringIcNS_11char_traitsIcEENS_9allocatorIcEEEEmEEE9__get_ptrB7v160006ERS8_, symObjAddr: 0x4554, symBinAddr: 0x100005B1C, symSize: 0x24 }
  - { offsetInCU: 0x252E6, offset: 0x252E6, size: 0x8, addend: 0x0, symName: __ZNSt3__110unique_ptrINS_11__hash_nodeINS_17__hash_value_typeINS_12basic_stringIcNS_11char_traitsIcEENS_9allocatorIcEEEEmEEPvEENS_22__hash_node_destructorINS6_ISB_EEEEE11get_deleterB7v160006Ev, symObjAddr: 0x4578, symBinAddr: 0x100005B40, symSize: 0x24 }
  - { offsetInCU: 0x2530C, offset: 0x2530C, size: 0x8, addend: 0x0, symName: __ZNSt3__117__compressed_pairINS_16__hash_node_baseIPNS_11__hash_nodeINS_17__hash_value_typeINS_12basic_stringIcNS_11char_traitsIcEENS_9allocatorIcEEEEmEEPvEEEENS7_ISC_EEE6secondB7v160006Ev, symObjAddr: 0x459C, symBinAddr: 0x100005B64, symSize: 0x24 }
  - { offsetInCU: 0x25332, offset: 0x25332, size: 0x8, addend: 0x0, symName: __ZNSt3__122__compressed_pair_elemINS_9allocatorINS_11__hash_nodeINS_17__hash_value_typeINS_12basic_stringIcNS_11char_traitsIcEENS1_IcEEEEmEEPvEEEELi1ELb1EE5__getB7v160006Ev, symObjAddr: 0x45C0, symBinAddr: 0x100005B88, symSize: 0x14 }
  - { offsetInCU: 0x25358, offset: 0x25358, size: 0x8, addend: 0x0, symName: __ZNSt3__19allocatorINS_11__hash_nodeINS_17__hash_value_typeINS_12basic_stringIcNS_11char_traitsIcEENS0_IcEEEEmEEPvEEE8allocateB7v160006Em, symObjAddr: 0x45D4, symBinAddr: 0x100005B9C, symSize: 0x5C }
  - { offsetInCU: 0x25397, offset: 0x25397, size: 0x8, addend: 0x0, symName: __ZNSt3__116allocator_traitsINS_9allocatorINS_11__hash_nodeINS_17__hash_value_typeINS_12basic_stringIcNS_11char_traitsIcEENS1_IcEEEEmEEPvEEEEE8max_sizeB7v160006ISC_vvEEmRKSC_, symObjAddr: 0x4630, symBinAddr: 0x100005BF8, symSize: 0x28 }
  - { offsetInCU: 0x253C2, offset: 0x253C2, size: 0x8, addend: 0x0, symName: __ZNSt3__114numeric_limitsImE3maxB7v160006Ev, symObjAddr: 0x46EC, symBinAddr: 0x100005CB4, symSize: 0x14 }
  - { offsetInCU: 0x253D6, offset: 0x253D6, size: 0x8, addend: 0x0, symName: __ZNSt3__123__libcpp_numeric_limitsImLb1EE3maxB7v160006Ev, symObjAddr: 0x4700, symBinAddr: 0x100005CC8, symSize: 0x8 }
  - { offsetInCU: 0x253EA, offset: 0x253EA, size: 0x8, addend: 0x0, symName: __ZNSt3__122__hash_node_destructorINS_9allocatorINS_11__hash_nodeINS_17__hash_value_typeINS_12basic_stringIcNS_11char_traitsIcEENS1_IcEEEEmEEPvEEEEEC2B7v160006ERSC_b, symObjAddr: 0x4778, symBinAddr: 0x100005D40, symSize: 0x38 }
  - { offsetInCU: 0x25432, offset: 0x25432, size: 0x8, addend: 0x0, symName: __ZNSt3__110unique_ptrINS_11__hash_nodeINS_17__hash_value_typeINS_12basic_stringIcNS_11char_traitsIcEENS_9allocatorIcEEEEmEEPvEENS_22__hash_node_destructorINS6_ISB_EEEEEC2B7v160006ILb1EvEEPSB_NS_16__dependent_typeINS_27__unique_ptr_deleter_sfinaeISE_EEXT_EE20__good_rval_ref_typeE, symObjAddr: 0x47B0, symBinAddr: 0x100005D78, symSize: 0x48 }
  - { offsetInCU: 0x25483, offset: 0x25483, size: 0x8, addend: 0x0, symName: __ZNSt3__117__compressed_pairIPNS_11__hash_nodeINS_17__hash_value_typeINS_12basic_stringIcNS_11char_traitsIcEENS_9allocatorIcEEEEmEEPvEENS_22__hash_node_destructorINS6_ISB_EEEEEC1B7v160006IRSC_SF_EEOT_OT0_, symObjAddr: 0x47F8, symBinAddr: 0x100005DC0, symSize: 0x3C }
  - { offsetInCU: 0x254DB, offset: 0x254DB, size: 0x8, addend: 0x0, symName: __ZNSt3__117__compressed_pairIPNS_11__hash_nodeINS_17__hash_value_typeINS_12basic_stringIcNS_11char_traitsIcEENS_9allocatorIcEEEEmEEPvEENS_22__hash_node_destructorINS6_ISB_EEEEEC2B7v160006IRSC_SF_EEOT_OT0_, symObjAddr: 0x4834, symBinAddr: 0x100005DFC, symSize: 0x48 }
  - { offsetInCU: 0x25533, offset: 0x25533, size: 0x8, addend: 0x0, symName: __ZNSt3__122__compressed_pair_elemIPNS_11__hash_nodeINS_17__hash_value_typeINS_12basic_stringIcNS_11char_traitsIcEENS_9allocatorIcEEEEmEEPvEELi0ELb0EEC2B7v160006IRSC_vEEOT_, symObjAddr: 0x487C, symBinAddr: 0x100005E44, symSize: 0x24 }
  - { offsetInCU: 0x25575, offset: 0x25575, size: 0x8, addend: 0x0, symName: __ZNSt3__122__compressed_pair_elemINS_22__hash_node_destructorINS_9allocatorINS_11__hash_nodeINS_17__hash_value_typeINS_12basic_stringIcNS_11char_traitsIcEENS2_IcEEEEmEEPvEEEEEELi1ELb0EEC2B7v160006ISE_vEEOT_, symObjAddr: 0x48A0, symBinAddr: 0x100005E68, symSize: 0x24 }
  - { offsetInCU: 0x255B7, offset: 0x255B7, size: 0x8, addend: 0x0, symName: __ZNSt3__14pairIKNS_12basic_stringIcNS_11char_traitsIcEENS_9allocatorIcEEEEmEC1B7v160006IJOS6_EJEEENS_21piecewise_construct_tENS_5tupleIJDpT_EEENSC_IJDpT0_EEE, symObjAddr: 0x4914, symBinAddr: 0x100005EDC, symSize: 0x44 }
  - { offsetInCU: 0x2561E, offset: 0x2561E, size: 0x8, addend: 0x0, symName: __ZNSt3__14pairIKNS_12basic_stringIcNS_11char_traitsIcEENS_9allocatorIcEEEEmEC1B7v160006IJOS6_EJEJLm0EEJEEENS_21piecewise_construct_tERNS_5tupleIJDpT_EEERNSC_IJDpT0_EEENS_15__tuple_indicesIJXspT1_EEEENSL_IJXspT2_EEEE, symObjAddr: 0x4958, symBinAddr: 0x100005F20, symSize: 0x3C }
  - { offsetInCU: 0x256AB, offset: 0x256AB, size: 0x8, addend: 0x0, symName: __ZNSt3__14pairIKNS_12basic_stringIcNS_11char_traitsIcEENS_9allocatorIcEEEEmEC2B7v160006IJOS6_EJEJLm0EEJEEENS_21piecewise_construct_tERNS_5tupleIJDpT_EEERNSC_IJDpT0_EEENS_15__tuple_indicesIJXspT1_EEEENSL_IJXspT2_EEEE, symObjAddr: 0x4994, symBinAddr: 0x100005F5C, symSize: 0x48 }
  - { offsetInCU: 0x25738, offset: 0x25738, size: 0x8, addend: 0x0, symName: __ZNSt3__112basic_stringIcNS_11char_traitsIcEENS_9allocatorIcEEEC1B7v160006EOS5_, symObjAddr: 0x4A00, symBinAddr: 0x100005FC8, symSize: 0x34 }
  - { offsetInCU: 0x25771, offset: 0x25771, size: 0x8, addend: 0x0, symName: __ZNSt3__112__tuple_leafILm0EONS_12basic_stringIcNS_11char_traitsIcEENS_9allocatorIcEEEELb0EE3getB7v160006Ev, symObjAddr: 0x4A34, symBinAddr: 0x100005FFC, symSize: 0x18 }
  - { offsetInCU: 0x25797, offset: 0x25797, size: 0x8, addend: 0x0, symName: __ZNSt3__112basic_stringIcNS_11char_traitsIcEENS_9allocatorIcEEEC2B7v160006EOS5_, symObjAddr: 0x4A4C, symBinAddr: 0x100006014, symSize: 0x80 }
  - { offsetInCU: 0x257D0, offset: 0x257D0, size: 0x8, addend: 0x0, symName: __ZNSt3__117__compressed_pairIPNS_11__hash_nodeINS_17__hash_value_typeINS_12basic_stringIcNS_11char_traitsIcEENS_9allocatorIcEEEEmEEPvEENS_22__hash_node_destructorINS6_ISB_EEEEE6secondB7v160006Ev, symObjAddr: 0x4AE0, symBinAddr: 0x1000060A8, symSize: 0x28 }
  - { offsetInCU: 0x257F6, offset: 0x257F6, size: 0x8, addend: 0x0, symName: __ZNSt3__122__compressed_pair_elemINS_22__hash_node_destructorINS_9allocatorINS_11__hash_nodeINS_17__hash_value_typeINS_12basic_stringIcNS_11char_traitsIcEENS2_IcEEEEmEEPvEEEEEELi1ELb0EE5__getB7v160006Ev, symObjAddr: 0x4B08, symBinAddr: 0x1000060D0, symSize: 0x14 }
  - { offsetInCU: 0x2581C, offset: 0x2581C, size: 0x8, addend: 0x0, symName: __ZNSt3__117__compressed_pairImNS_22__unordered_map_hasherINS_12basic_stringIcNS_11char_traitsIcEENS_9allocatorIcEEEENS_17__hash_value_typeIS7_mEENS_4hashIS7_EENS_8equal_toIS7_EELb1EEEE5firstB7v160006Ev, symObjAddr: 0x4B1C, symBinAddr: 0x1000060E4, symSize: 0x24 }
  - { offsetInCU: 0x25842, offset: 0x25842, size: 0x8, addend: 0x0, symName: __ZNSt3__122__compressed_pair_elemImLi0ELb0EE5__getB7v160006Ev, symObjAddr: 0x4B40, symBinAddr: 0x100006108, symSize: 0x14 }
  - { offsetInCU: 0x25868, offset: 0x25868, size: 0x8, addend: 0x0, symName: __ZNSt3__117__compressed_pairIfNS_21__unordered_map_equalINS_12basic_stringIcNS_11char_traitsIcEENS_9allocatorIcEEEENS_17__hash_value_typeIS7_mEENS_8equal_toIS7_EENS_4hashIS7_EELb1EEEE5firstB7v160006Ev, symObjAddr: 0x4B54, symBinAddr: 0x10000611C, symSize: 0x24 }
  - { offsetInCU: 0x2588E, offset: 0x2588E, size: 0x8, addend: 0x0, symName: __ZNSt3__122__compressed_pair_elemIfLi0ELb0EE5__getB7v160006Ev, symObjAddr: 0x4B78, symBinAddr: 0x100006140, symSize: 0x14 }
  - { offsetInCU: 0x258B4, offset: 0x258B4, size: 0x8, addend: 0x0, symName: __ZNSt3__112__hash_tableINS_17__hash_value_typeINS_12basic_stringIcNS_11char_traitsIcEENS_9allocatorIcEEEEmEENS_22__unordered_map_hasherIS7_S8_NS_4hashIS7_EENS_8equal_toIS7_EELb1EEENS_21__unordered_map_equalIS7_S8_SD_SB_Lb1EEENS5_IS8_EEE8__rehashILb1EEEvm, symObjAddr: 0x4B8C, symBinAddr: 0x100006154, symSize: 0x1A8 }
  - { offsetInCU: 0x25904, offset: 0x25904, size: 0x8, addend: 0x0, symName: __ZNSt3__112__hash_tableINS_17__hash_value_typeINS_12basic_stringIcNS_11char_traitsIcEENS_9allocatorIcEEEEmEENS_22__unordered_map_hasherIS7_S8_NS_4hashIS7_EENS_8equal_toIS7_EELb1EEENS_21__unordered_map_equalIS7_S8_SD_SB_Lb1EEENS5_IS8_EEE11__do_rehashILb1EEEvm, symObjAddr: 0x4D34, symBinAddr: 0x1000062FC, symSize: 0x290 }
  - { offsetInCU: 0x259E7, offset: 0x259E7, size: 0x8, addend: 0x0, symName: __ZNSt3__110unique_ptrIA_PNS_16__hash_node_baseIPNS_11__hash_nodeINS_17__hash_value_typeINS_12basic_stringIcNS_11char_traitsIcEENS_9allocatorIcEEEEmEEPvEEEENS_25__bucket_list_deallocatorINS7_ISF_EEEEE11get_deleterB7v160006Ev, symObjAddr: 0x5040, symBinAddr: 0x100006608, symSize: 0x24 }
  - { offsetInCU: 0x25A0D, offset: 0x25A0D, size: 0x8, addend: 0x0, symName: __ZNSt3__125__bucket_list_deallocatorINS_9allocatorIPNS_16__hash_node_baseIPNS_11__hash_nodeINS_17__hash_value_typeINS_12basic_stringIcNS_11char_traitsIcEENS1_IcEEEEmEEPvEEEEEEE7__allocB7v160006Ev, symObjAddr: 0x5064, symBinAddr: 0x10000662C, symSize: 0x24 }
  - { offsetInCU: 0x25A33, offset: 0x25A33, size: 0x8, addend: 0x0, symName: __ZNSt3__110unique_ptrIA_PNS_16__hash_node_baseIPNS_11__hash_nodeINS_17__hash_value_typeINS_12basic_stringIcNS_11char_traitsIcEENS_9allocatorIcEEEEmEEPvEEEENS_25__bucket_list_deallocatorINS7_ISF_EEEEE5resetB7v160006IPSF_EENS_9enable_ifIXsr28_CheckArrayPointerConversionIT_EE5valueEvE4typeESO_, symObjAddr: 0x5088, symBinAddr: 0x100006650, symSize: 0x78 }
  - { offsetInCU: 0x25A80, offset: 0x25A80, size: 0x8, addend: 0x0, symName: __ZNSt3__116allocator_traitsINS_9allocatorIPNS_16__hash_node_baseIPNS_11__hash_nodeINS_17__hash_value_typeINS_12basic_stringIcNS_11char_traitsIcEENS1_IcEEEEmEEPvEEEEEEE8allocateB7v160006ERSG_m, symObjAddr: 0x5100, symBinAddr: 0x1000066C8, symSize: 0x2C }
  - { offsetInCU: 0x25AB3, offset: 0x25AB3, size: 0x8, addend: 0x0, symName: __ZNSt3__125__bucket_list_deallocatorINS_9allocatorIPNS_16__hash_node_baseIPNS_11__hash_nodeINS_17__hash_value_typeINS_12basic_stringIcNS_11char_traitsIcEENS1_IcEEEEmEEPvEEEEEEE4sizeB7v160006Ev, symObjAddr: 0x512C, symBinAddr: 0x1000066F4, symSize: 0x24 }
  - { offsetInCU: 0x25AD9, offset: 0x25AD9, size: 0x8, addend: 0x0, symName: __ZNSt3__117__compressed_pairIPPNS_16__hash_node_baseIPNS_11__hash_nodeINS_17__hash_value_typeINS_12basic_stringIcNS_11char_traitsIcEENS_9allocatorIcEEEEmEEPvEEEENS_25__bucket_list_deallocatorINS7_ISF_EEEEE6secondB7v160006Ev, symObjAddr: 0x5150, symBinAddr: 0x100006718, symSize: 0x28 }
  - { offsetInCU: 0x25AFF, offset: 0x25AFF, size: 0x8, addend: 0x0, symName: __ZNSt3__122__compressed_pair_elemINS_25__bucket_list_deallocatorINS_9allocatorIPNS_16__hash_node_baseIPNS_11__hash_nodeINS_17__hash_value_typeINS_12basic_stringIcNS_11char_traitsIcEENS2_IcEEEEmEEPvEEEEEEEELi1ELb0EE5__getB7v160006Ev, symObjAddr: 0x5178, symBinAddr: 0x100006740, symSize: 0x14 }
  - { offsetInCU: 0x25B25, offset: 0x25B25, size: 0x8, addend: 0x0, symName: __ZNSt3__117__compressed_pairImNS_9allocatorIPNS_16__hash_node_baseIPNS_11__hash_nodeINS_17__hash_value_typeINS_12basic_stringIcNS_11char_traitsIcEENS1_IcEEEEmEEPvEEEEEEE6secondB7v160006Ev, symObjAddr: 0x518C, symBinAddr: 0x100006754, symSize: 0x24 }
  - { offsetInCU: 0x25B4B, offset: 0x25B4B, size: 0x8, addend: 0x0, symName: __ZNSt3__122__compressed_pair_elemINS_9allocatorIPNS_16__hash_node_baseIPNS_11__hash_nodeINS_17__hash_value_typeINS_12basic_stringIcNS_11char_traitsIcEENS1_IcEEEEmEEPvEEEEEELi1ELb1EE5__getB7v160006Ev, symObjAddr: 0x51B0, symBinAddr: 0x100006778, symSize: 0x14 }
  - { offsetInCU: 0x25B71, offset: 0x25B71, size: 0x8, addend: 0x0, symName: __ZNSt3__117__compressed_pairIPPNS_16__hash_node_baseIPNS_11__hash_nodeINS_17__hash_value_typeINS_12basic_stringIcNS_11char_traitsIcEENS_9allocatorIcEEEEmEEPvEEEENS_25__bucket_list_deallocatorINS7_ISF_EEEEE5firstB7v160006Ev, symObjAddr: 0x51C4, symBinAddr: 0x10000678C, symSize: 0x24 }
  - { offsetInCU: 0x25B97, offset: 0x25B97, size: 0x8, addend: 0x0, symName: __ZNSt3__125__bucket_list_deallocatorINS_9allocatorIPNS_16__hash_node_baseIPNS_11__hash_nodeINS_17__hash_value_typeINS_12basic_stringIcNS_11char_traitsIcEENS1_IcEEEEmEEPvEEEEEEEclB7v160006EPSF_, symObjAddr: 0x51E8, symBinAddr: 0x1000067B0, symSize: 0x58 }
  - { offsetInCU: 0x25BCC, offset: 0x25BCC, size: 0x8, addend: 0x0, symName: __ZNSt3__122__compressed_pair_elemIPPNS_16__hash_node_baseIPNS_11__hash_nodeINS_17__hash_value_typeINS_12basic_stringIcNS_11char_traitsIcEENS_9allocatorIcEEEEmEEPvEEEELi0ELb0EE5__getB7v160006Ev, symObjAddr: 0x5240, symBinAddr: 0x100006808, symSize: 0x14 }
  - { offsetInCU: 0x25BF2, offset: 0x25BF2, size: 0x8, addend: 0x0, symName: __ZNSt3__116allocator_traitsINS_9allocatorIPNS_16__hash_node_baseIPNS_11__hash_nodeINS_17__hash_value_typeINS_12basic_stringIcNS_11char_traitsIcEENS1_IcEEEEmEEPvEEEEEEE10deallocateB7v160006ERSG_PSF_m, symObjAddr: 0x5254, symBinAddr: 0x10000681C, symSize: 0x34 }
  - { offsetInCU: 0x25C34, offset: 0x25C34, size: 0x8, addend: 0x0, symName: __ZNSt3__19allocatorIPNS_16__hash_node_baseIPNS_11__hash_nodeINS_17__hash_value_typeINS_12basic_stringIcNS_11char_traitsIcEENS0_IcEEEEmEEPvEEEEE10deallocateB7v160006EPSE_m, symObjAddr: 0x5288, symBinAddr: 0x100006850, symSize: 0x40 }
  - { offsetInCU: 0x25C76, offset: 0x25C76, size: 0x8, addend: 0x0, symName: __ZNSt3__19allocatorIPNS_16__hash_node_baseIPNS_11__hash_nodeINS_17__hash_value_typeINS_12basic_stringIcNS_11char_traitsIcEENS0_IcEEEEmEEPvEEEEE8allocateB7v160006Em, symObjAddr: 0x53D0, symBinAddr: 0x100006998, symSize: 0x58 }
  - { offsetInCU: 0x25CB5, offset: 0x25CB5, size: 0x8, addend: 0x0, symName: __ZNSt3__116allocator_traitsINS_9allocatorIPNS_16__hash_node_baseIPNS_11__hash_nodeINS_17__hash_value_typeINS_12basic_stringIcNS_11char_traitsIcEENS1_IcEEEEmEEPvEEEEEEE8max_sizeB7v160006ISG_vvEEmRKSG_, symObjAddr: 0x5428, symBinAddr: 0x1000069F0, symSize: 0x28 }
  - { offsetInCU: 0x25CE0, offset: 0x25CE0, size: 0x8, addend: 0x0, symName: __ZNSt3__117__compressed_pairImNS_9allocatorIPNS_16__hash_node_baseIPNS_11__hash_nodeINS_17__hash_value_typeINS_12basic_stringIcNS_11char_traitsIcEENS1_IcEEEEmEEPvEEEEEEE5firstB7v160006Ev, symObjAddr: 0x5450, symBinAddr: 0x100006A18, symSize: 0x24 }
  - { offsetInCU: 0x25D11, offset: 0x25D11, size: 0x8, addend: 0x0, symName: __ZNKSt3__16__lessImmEclB7v160006ERKmS3_, symObjAddr: 0x54E4, symBinAddr: 0x100006AAC, symSize: 0x34 }
  - { offsetInCU: 0x25D53, offset: 0x25D53, size: 0x8, addend: 0x0, symName: __ZNSt3__122__compressed_pair_elemINS_16__hash_node_baseIPNS_11__hash_nodeINS_17__hash_value_typeINS_12basic_stringIcNS_11char_traitsIcEENS_9allocatorIcEEEEmEEPvEEEELi0ELb0EE5__getB7v160006Ev, symObjAddr: 0x5518, symBinAddr: 0x100006AE0, symSize: 0x14 }
  - { offsetInCU: 0x25D79, offset: 0x25D79, size: 0x8, addend: 0x0, symName: __ZNKSt3__117__compressed_pairIPNS_11__hash_nodeINS_17__hash_value_typeINS_12basic_stringIcNS_11char_traitsIcEENS_9allocatorIcEEEEmEEPvEENS_22__hash_node_destructorINS6_ISB_EEEEE5firstB7v160006Ev, symObjAddr: 0x552C, symBinAddr: 0x100006AF4, symSize: 0x24 }
  - { offsetInCU: 0x25D9F, offset: 0x25D9F, size: 0x8, addend: 0x0, symName: __ZNKSt3__122__compressed_pair_elemIPNS_11__hash_nodeINS_17__hash_value_typeINS_12basic_stringIcNS_11char_traitsIcEENS_9allocatorIcEEEEmEEPvEELi0ELb0EE5__getB7v160006Ev, symObjAddr: 0x5550, symBinAddr: 0x100006B18, symSize: 0x14 }
  - { offsetInCU: 0x25DC5, offset: 0x25DC5, size: 0x8, addend: 0x0, symName: __ZNSt3__117__compressed_pairIPNS_11__hash_nodeINS_17__hash_value_typeINS_12basic_stringIcNS_11char_traitsIcEENS_9allocatorIcEEEEmEEPvEENS_22__hash_node_destructorINS6_ISB_EEEEE5firstB7v160006Ev, symObjAddr: 0x5564, symBinAddr: 0x100006B2C, symSize: 0x24 }
  - { offsetInCU: 0x25DEB, offset: 0x25DEB, size: 0x8, addend: 0x0, symName: __ZNSt3__122__compressed_pair_elemIPNS_11__hash_nodeINS_17__hash_value_typeINS_12basic_stringIcNS_11char_traitsIcEENS_9allocatorIcEEEEmEEPvEELi0ELb0EE5__getB7v160006Ev, symObjAddr: 0x5588, symBinAddr: 0x100006B50, symSize: 0x14 }
  - { offsetInCU: 0x25E11, offset: 0x25E11, size: 0x8, addend: 0x0, symName: __ZNSt3__110unique_ptrINS_11__hash_nodeINS_17__hash_value_typeINS_12basic_stringIcNS_11char_traitsIcEENS_9allocatorIcEEEEmEEPvEENS_22__hash_node_destructorINS6_ISB_EEEEED2B7v160006Ev, symObjAddr: 0x559C, symBinAddr: 0x100006B64, symSize: 0x30 }
  - { offsetInCU: 0x25E3B, offset: 0x25E3B, size: 0x8, addend: 0x0, symName: __ZNSt3__110unique_ptrINS_11__hash_nodeINS_17__hash_value_typeINS_12basic_stringIcNS_11char_traitsIcEENS_9allocatorIcEEEEmEEPvEENS_22__hash_node_destructorINS6_ISB_EEEEE5resetB7v160006EPSB_, symObjAddr: 0x55CC, symBinAddr: 0x100006B94, symSize: 0x78 }
  - { offsetInCU: 0x25E7F, offset: 0x25E7F, size: 0x8, addend: 0x0, symName: __ZNSt3__122__hash_node_destructorINS_9allocatorINS_11__hash_nodeINS_17__hash_value_typeINS_12basic_stringIcNS_11char_traitsIcEENS1_IcEEEEmEEPvEEEEEclB7v160006EPSB_, symObjAddr: 0x5644, symBinAddr: 0x100006C0C, symSize: 0x98 }
  - { offsetInCU: 0x25EB4, offset: 0x25EB4, size: 0x8, addend: 0x0, symName: __ZNSt3__116allocator_traitsINS_9allocatorINS_11__hash_nodeINS_17__hash_value_typeINS_12basic_stringIcNS_11char_traitsIcEENS1_IcEEEEmEEPvEEEEE7destroyB7v160006INS_4pairIKS8_mEEvvEEvRSC_PT_, symObjAddr: 0x56DC, symBinAddr: 0x100006CA4, symSize: 0x28 }
  - { offsetInCU: 0x25EEE, offset: 0x25EEE, size: 0x8, addend: 0x0, symName: __ZNSt3__116allocator_traitsINS_9allocatorINS_11__hash_nodeINS_17__hash_value_typeINS_12basic_stringIcNS_11char_traitsIcEENS1_IcEEEEmEEPvEEEEE10deallocateB7v160006ERSC_PSB_m, symObjAddr: 0x5704, symBinAddr: 0x100006CCC, symSize: 0x34 }
  - { offsetInCU: 0x25F30, offset: 0x25F30, size: 0x8, addend: 0x0, symName: __ZNSt3__14pairIKNS_12basic_stringIcNS_11char_traitsIcEENS_9allocatorIcEEEEmED1Ev, symObjAddr: 0x5780, symBinAddr: 0x100006D48, symSize: 0x2C }
  - { offsetInCU: 0x25F5C, offset: 0x25F5C, size: 0x8, addend: 0x0, symName: __ZNSt3__14pairIKNS_12basic_stringIcNS_11char_traitsIcEENS_9allocatorIcEEEEmED2Ev, symObjAddr: 0x57AC, symBinAddr: 0x100006D74, symSize: 0x2C }
  - { offsetInCU: 0x25F88, offset: 0x25F88, size: 0x8, addend: 0x0, symName: __ZNSt3__19allocatorINS_11__hash_nodeINS_17__hash_value_typeINS_12basic_stringIcNS_11char_traitsIcEENS0_IcEEEEmEEPvEEE10deallocateB7v160006EPSA_m, symObjAddr: 0x57D8, symBinAddr: 0x100006DA0, symSize: 0x44 }
  - { offsetInCU: 0x25FCA, offset: 0x25FCA, size: 0x8, addend: 0x0, symName: __ZNSt3__115__hash_iteratorIPNS_11__hash_nodeINS_17__hash_value_typeINS_12basic_stringIcNS_11char_traitsIcEENS_9allocatorIcEEEEmEEPvEEEC2B7v160006EPNS_16__hash_node_baseISC_EEPKv, symObjAddr: 0x581C, symBinAddr: 0x100006DE4, symSize: 0x24 }
  - { offsetInCU: 0x26012, offset: 0x26012, size: 0x8, addend: 0x0, symName: __ZNSt3__14pairINS_15__hash_iteratorIPNS_11__hash_nodeINS_17__hash_value_typeINS_12basic_stringIcNS_11char_traitsIcEENS_9allocatorIcEEEEmEEPvEEEEbEC2B7v160006ISE_RbLSB_0EEEOT_OT0_, symObjAddr: 0x5840, symBinAddr: 0x100006E08, symSize: 0x38 }
  - { offsetInCU: 0x26070, offset: 0x26070, size: 0x8, addend: 0x0, symName: __ZNSt3__15tupleIJONS_12basic_stringIcNS_11char_traitsIcEENS_9allocatorIcEEEEEEC1B7v160006IJS6_ELi0EEEDpOT_, symObjAddr: 0x5878, symBinAddr: 0x100006E40, symSize: 0x34 }
  - { offsetInCU: 0x260BA, offset: 0x260BA, size: 0x8, addend: 0x0, symName: __ZNSt3__15tupleIJONS_12basic_stringIcNS_11char_traitsIcEENS_9allocatorIcEEEEEEC2B7v160006IJS6_ELi0EEEDpOT_, symObjAddr: 0x58AC, symBinAddr: 0x100006E74, symSize: 0x34 }
  - { offsetInCU: 0x26104, offset: 0x26104, size: 0x8, addend: 0x0, symName: __ZNSt3__112__tuple_implINS_15__tuple_indicesIJLm0EEEEJONS_12basic_stringIcNS_11char_traitsIcEENS_9allocatorIcEEEEEEC1B7v160006IJLm0EEJS9_EJEJEJS8_EEENS1_IJXspT_EEEENS_13__tuple_typesIJDpT0_EEENS1_IJXspT1_EEEENSD_IJDpT2_EEEDpOT3_, symObjAddr: 0x58E0, symBinAddr: 0x100006EA8, symSize: 0x34 }
  - { offsetInCU: 0x26195, offset: 0x26195, size: 0x8, addend: 0x0, symName: __ZNSt3__112__tuple_implINS_15__tuple_indicesIJLm0EEEEJONS_12basic_stringIcNS_11char_traitsIcEENS_9allocatorIcEEEEEEC2B7v160006IJLm0EEJS9_EJEJEJS8_EEENS1_IJXspT_EEEENS_13__tuple_typesIJDpT0_EEENS1_IJXspT1_EEEENSD_IJDpT2_EEEDpOT3_, symObjAddr: 0x5914, symBinAddr: 0x100006EDC, symSize: 0x34 }
  - { offsetInCU: 0x26226, offset: 0x26226, size: 0x8, addend: 0x0, symName: __ZNSt3__112__tuple_leafILm0EONS_12basic_stringIcNS_11char_traitsIcEENS_9allocatorIcEEEELb0EEC2B7v160006IS6_vEEOT_, symObjAddr: 0x5948, symBinAddr: 0x100006F10, symSize: 0x20 }
  - { offsetInCU: 0x26269, offset: 0x26269, size: 0x8, addend: 0x0, symName: __ZNSt3__114pointer_traitsIPNS_17__hash_value_typeINS_12basic_stringIcNS_11char_traitsIcEENS_9allocatorIcEEEEmEEE10pointer_toB7v160006ERS8_, symObjAddr: 0x5968, symBinAddr: 0x100006F30, symSize: 0x14 }
  - { offsetInCU: 0x2628C, offset: 0x2628C, size: 0x8, addend: 0x0, symName: __ZNSt3__112basic_stringIcNS_11char_traitsIcEENS_9allocatorIcEEEC2B7v160006IDnEEPKc, symObjAddr: 0x59B4, symBinAddr: 0x100006F7C, symSize: 0x60 }
  - { offsetInCU: 0x262CA, offset: 0x262CA, size: 0x8, addend: 0x0, symName: __ZNSt3__111char_traitsIcE6lengthEPKc, symObjAddr: 0x5A14, symBinAddr: 0x100006FDC, symSize: 0x34 }
  - { offsetInCU: 0x262ED, offset: 0x262ED, size: 0x8, addend: 0x0, symName: __ZNSt3__113unordered_mapIm8workflowNS_4hashImEENS_8equal_toImEENS_9allocatorINS_4pairIKmS1_EEEEED2B7v160006Ev, symObjAddr: 0x5A6C, symBinAddr: 0x100007034, symSize: 0x2C }
  - { offsetInCU: 0x26317, offset: 0x26317, size: 0x8, addend: 0x0, symName: __ZNSt3__112__hash_tableINS_17__hash_value_typeIm8workflowEENS_22__unordered_map_hasherImS3_NS_4hashImEENS_8equal_toImEELb1EEENS_21__unordered_map_equalImS3_S8_S6_Lb1EEENS_9allocatorIS3_EEED1Ev, symObjAddr: 0x5A98, symBinAddr: 0x100007060, symSize: 0x2C }
  - { offsetInCU: 0x26343, offset: 0x26343, size: 0x8, addend: 0x0, symName: __ZNSt3__112__hash_tableINS_17__hash_value_typeIm8workflowEENS_22__unordered_map_hasherImS3_NS_4hashImEENS_8equal_toImEELb1EEENS_21__unordered_map_equalImS3_S8_S6_Lb1EEENS_9allocatorIS3_EEED2Ev, symObjAddr: 0x5AC4, symBinAddr: 0x10000708C, symSize: 0x58 }
  - { offsetInCU: 0x2636F, offset: 0x2636F, size: 0x8, addend: 0x0, symName: __ZNSt3__112__hash_tableINS_17__hash_value_typeIm8workflowEENS_22__unordered_map_hasherImS3_NS_4hashImEENS_8equal_toImEELb1EEENS_21__unordered_map_equalImS3_S8_S6_Lb1EEENS_9allocatorIS3_EEE17__deallocate_nodeEPNS_16__hash_node_baseIPNS_11__hash_nodeIS3_PvEEEE, symObjAddr: 0x5B1C, symBinAddr: 0x1000070E4, symSize: 0xA8 }
  - { offsetInCU: 0x263D9, offset: 0x263D9, size: 0x8, addend: 0x0, symName: __ZNSt3__117__compressed_pairINS_16__hash_node_baseIPNS_11__hash_nodeINS_17__hash_value_typeIm8workflowEEPvEEEENS_9allocatorIS7_EEE5firstB7v160006Ev, symObjAddr: 0x5BC4, symBinAddr: 0x10000718C, symSize: 0x24 }
  - { offsetInCU: 0x263FF, offset: 0x263FF, size: 0x8, addend: 0x0, symName: __ZNSt3__110unique_ptrIA_PNS_16__hash_node_baseIPNS_11__hash_nodeINS_17__hash_value_typeIm8workflowEEPvEEEENS_25__bucket_list_deallocatorINS_9allocatorISA_EEEEED1B7v160006Ev, symObjAddr: 0x5BF8, symBinAddr: 0x1000071C0, symSize: 0x2C }
  - { offsetInCU: 0x26429, offset: 0x26429, size: 0x8, addend: 0x0, symName: __ZNSt3__112__hash_tableINS_17__hash_value_typeIm8workflowEENS_22__unordered_map_hasherImS3_NS_4hashImEENS_8equal_toImEELb1EEENS_21__unordered_map_equalImS3_S8_S6_Lb1EEENS_9allocatorIS3_EEE12__node_allocB7v160006Ev, symObjAddr: 0x5C24, symBinAddr: 0x1000071EC, symSize: 0x28 }
  - { offsetInCU: 0x2644F, offset: 0x2644F, size: 0x8, addend: 0x0, symName: __ZNSt3__116__hash_node_baseIPNS_11__hash_nodeINS_17__hash_value_typeIm8workflowEEPvEEE8__upcastB7v160006Ev, symObjAddr: 0x5C4C, symBinAddr: 0x100007214, symSize: 0x24 }
  - { offsetInCU: 0x26475, offset: 0x26475, size: 0x8, addend: 0x0, symName: __ZNSt3__116allocator_traitsINS_9allocatorINS_11__hash_nodeINS_17__hash_value_typeIm8workflowEEPvEEEEE7destroyB7v160006INS_4pairIKmS4_EEvvEEvRS8_PT_, symObjAddr: 0x5C70, symBinAddr: 0x100007238, symSize: 0x28 }
  - { offsetInCU: 0x264AF, offset: 0x264AF, size: 0x8, addend: 0x0, symName: __ZNSt3__122__hash_key_value_typesINS_17__hash_value_typeIm8workflowEEE9__get_ptrB7v160006ERS3_, symObjAddr: 0x5C98, symBinAddr: 0x100007260, symSize: 0x24 }
  - { offsetInCU: 0x264D2, offset: 0x264D2, size: 0x8, addend: 0x0, symName: __ZNSt3__116allocator_traitsINS_9allocatorINS_11__hash_nodeINS_17__hash_value_typeIm8workflowEEPvEEEEE10deallocateB7v160006ERS8_PS7_m, symObjAddr: 0x5CBC, symBinAddr: 0x100007284, symSize: 0x34 }
  - { offsetInCU: 0x26514, offset: 0x26514, size: 0x8, addend: 0x0, symName: __ZNSt3__117__compressed_pairINS_16__hash_node_baseIPNS_11__hash_nodeINS_17__hash_value_typeIm8workflowEEPvEEEENS_9allocatorIS7_EEE6secondB7v160006Ev, symObjAddr: 0x5CF0, symBinAddr: 0x1000072B8, symSize: 0x24 }
  - { offsetInCU: 0x2653A, offset: 0x2653A, size: 0x8, addend: 0x0, symName: __ZNSt3__122__compressed_pair_elemINS_9allocatorINS_11__hash_nodeINS_17__hash_value_typeIm8workflowEEPvEEEELi1ELb1EE5__getB7v160006Ev, symObjAddr: 0x5D14, symBinAddr: 0x1000072DC, symSize: 0x14 }
  - { offsetInCU: 0x26560, offset: 0x26560, size: 0x8, addend: 0x0, symName: __ZNSt3__114pointer_traitsIPNS_16__hash_node_baseIPNS_11__hash_nodeINS_17__hash_value_typeIm8workflowEEPvEEEEE10pointer_toB7v160006ERS9_, symObjAddr: 0x5D28, symBinAddr: 0x1000072F0, symSize: 0x14 }
  - { offsetInCU: 0x26583, offset: 0x26583, size: 0x8, addend: 0x0, symName: __ZNSt3__14pairIKm8workflowED1Ev, symObjAddr: 0x5D84, symBinAddr: 0x10000734C, symSize: 0x2C }
  - { offsetInCU: 0x265AF, offset: 0x265AF, size: 0x8, addend: 0x0, symName: __ZNSt3__14pairIKm8workflowED2Ev, symObjAddr: 0x5DB0, symBinAddr: 0x100007378, symSize: 0x30 }
  - { offsetInCU: 0x265DB, offset: 0x265DB, size: 0x8, addend: 0x0, symName: __ZN8workflowD1Ev, symObjAddr: 0x5DE0, symBinAddr: 0x1000073A8, symSize: 0x2C }
  - { offsetInCU: 0x26607, offset: 0x26607, size: 0x8, addend: 0x0, symName: __ZN8workflowD2Ev, symObjAddr: 0x5E0C, symBinAddr: 0x1000073D4, symSize: 0x38 }
  - { offsetInCU: 0x26633, offset: 0x26633, size: 0x8, addend: 0x0, symName: __ZNSt3__16vectorIN8workflow11requirementENS_9allocatorIS2_EEED1B7v160006Ev, symObjAddr: 0x5E44, symBinAddr: 0x10000740C, symSize: 0x2C }
  - { offsetInCU: 0x2665D, offset: 0x2665D, size: 0x8, addend: 0x0, symName: __ZNSt3__16vectorIN8workflow11requirementENS_9allocatorIS2_EEED2B7v160006Ev, symObjAddr: 0x5E70, symBinAddr: 0x100007438, symSize: 0x44 }
  - { offsetInCU: 0x26687, offset: 0x26687, size: 0x8, addend: 0x0, symName: __ZNSt3__16vectorIN8workflow11requirementENS_9allocatorIS2_EEE16__destroy_vectorC1ERS5_, symObjAddr: 0x5EB4, symBinAddr: 0x10000747C, symSize: 0x34 }
  - { offsetInCU: 0x266C0, offset: 0x266C0, size: 0x8, addend: 0x0, symName: __ZNSt3__16vectorIN8workflow11requirementENS_9allocatorIS2_EEE16__destroy_vectorclB7v160006Ev, symObjAddr: 0x5EE8, symBinAddr: 0x1000074B0, symSize: 0x9C }
  - { offsetInCU: 0x266E6, offset: 0x266E6, size: 0x8, addend: 0x0, symName: __ZNSt3__16vectorIN8workflow11requirementENS_9allocatorIS2_EEE16__destroy_vectorC2ERS5_, symObjAddr: 0x5F84, symBinAddr: 0x10000754C, symSize: 0x20 }
  - { offsetInCU: 0x2671F, offset: 0x2671F, size: 0x8, addend: 0x0, symName: __ZNKSt3__16vectorIN8workflow11requirementENS_9allocatorIS2_EEE17__annotate_deleteB7v160006Ev, symObjAddr: 0x5FA4, symBinAddr: 0x10000756C, symSize: 0xB8 }
  - { offsetInCU: 0x26745, offset: 0x26745, size: 0x8, addend: 0x0, symName: __ZNSt3__16vectorIN8workflow11requirementENS_9allocatorIS2_EEE7__clearB7v160006Ev, symObjAddr: 0x606C, symBinAddr: 0x100007634, symSize: 0x28 }
  - { offsetInCU: 0x2676B, offset: 0x2676B, size: 0x8, addend: 0x0, symName: __ZNSt3__116allocator_traitsINS_9allocatorIN8workflow11requirementEEEE10deallocateB7v160006ERS4_PS3_m, symObjAddr: 0x6094, symBinAddr: 0x10000765C, symSize: 0x34 }
  - { offsetInCU: 0x267AD, offset: 0x267AD, size: 0x8, addend: 0x0, symName: __ZNSt3__16vectorIN8workflow11requirementENS_9allocatorIS2_EEE7__allocB7v160006Ev, symObjAddr: 0x60C8, symBinAddr: 0x100007690, symSize: 0x28 }
  - { offsetInCU: 0x267D3, offset: 0x267D3, size: 0x8, addend: 0x0, symName: __ZNKSt3__16vectorIN8workflow11requirementENS_9allocatorIS2_EEE8capacityB7v160006Ev, symObjAddr: 0x60F0, symBinAddr: 0x1000076B8, symSize: 0x40 }
  - { offsetInCU: 0x267F9, offset: 0x267F9, size: 0x8, addend: 0x0, symName: __ZNKSt3__16vectorIN8workflow11requirementENS_9allocatorIS2_EEE31__annotate_contiguous_containerB7v160006EPKvS7_S7_S7_, symObjAddr: 0x6130, symBinAddr: 0x1000076F8, symSize: 0x20 }
  - { offsetInCU: 0x2684B, offset: 0x2684B, size: 0x8, addend: 0x0, symName: __ZNKSt3__16vectorIN8workflow11requirementENS_9allocatorIS2_EEE4dataB7v160006Ev, symObjAddr: 0x6150, symBinAddr: 0x100007718, symSize: 0x28 }
  - { offsetInCU: 0x26871, offset: 0x26871, size: 0x8, addend: 0x0, symName: __ZNKSt3__16vectorIN8workflow11requirementENS_9allocatorIS2_EEE4sizeB7v160006Ev, symObjAddr: 0x6178, symBinAddr: 0x100007740, symSize: 0x28 }
  - { offsetInCU: 0x26897, offset: 0x26897, size: 0x8, addend: 0x0, symName: __ZNSt3__16vectorIN8workflow11requirementENS_9allocatorIS2_EEE22__base_destruct_at_endB7v160006EPS2_, symObjAddr: 0x61B4, symBinAddr: 0x10000777C, symSize: 0x8C }
  - { offsetInCU: 0x268DB, offset: 0x268DB, size: 0x8, addend: 0x0, symName: __ZNSt3__116allocator_traitsINS_9allocatorIN8workflow11requirementEEEE7destroyB7v160006IS3_vvEEvRS4_PT_, symObjAddr: 0x6240, symBinAddr: 0x100007808, symSize: 0x28 }
  - { offsetInCU: 0x26915, offset: 0x26915, size: 0x8, addend: 0x0, symName: __ZNSt3__19allocatorIN8workflow11requirementEE10deallocateB7v160006EPS2_m, symObjAddr: 0x629C, symBinAddr: 0x100007864, symSize: 0x40 }
  - { offsetInCU: 0x26957, offset: 0x26957, size: 0x8, addend: 0x0, symName: __ZNSt3__117__compressed_pairIPN8workflow11requirementENS_9allocatorIS2_EEE6secondB7v160006Ev, symObjAddr: 0x62DC, symBinAddr: 0x1000078A4, symSize: 0x24 }
  - { offsetInCU: 0x2697D, offset: 0x2697D, size: 0x8, addend: 0x0, symName: __ZNSt3__122__compressed_pair_elemINS_9allocatorIN8workflow11requirementEEELi1ELb1EE5__getB7v160006Ev, symObjAddr: 0x6300, symBinAddr: 0x1000078C8, symSize: 0x14 }
  - { offsetInCU: 0x269A3, offset: 0x269A3, size: 0x8, addend: 0x0, symName: __ZNKSt3__16vectorIN8workflow11requirementENS_9allocatorIS2_EEE9__end_capB7v160006Ev, symObjAddr: 0x6314, symBinAddr: 0x1000078DC, symSize: 0x28 }
  - { offsetInCU: 0x269C9, offset: 0x269C9, size: 0x8, addend: 0x0, symName: __ZNKSt3__117__compressed_pairIPN8workflow11requirementENS_9allocatorIS2_EEE5firstB7v160006Ev, symObjAddr: 0x633C, symBinAddr: 0x100007904, symSize: 0x24 }
  - { offsetInCU: 0x269EF, offset: 0x269EF, size: 0x8, addend: 0x0, symName: __ZNKSt3__122__compressed_pair_elemIPN8workflow11requirementELi0ELb0EE5__getB7v160006Ev, symObjAddr: 0x6360, symBinAddr: 0x100007928, symSize: 0x14 }
  - { offsetInCU: 0x26A15, offset: 0x26A15, size: 0x8, addend: 0x0, symName: __ZNSt3__117__hash_value_typeIm8workflowE11__get_valueB7v160006Ev, symObjAddr: 0x6374, symBinAddr: 0x10000793C, symSize: 0x24 }
  - { offsetInCU: 0x26A3B, offset: 0x26A3B, size: 0x8, addend: 0x0, symName: __ZNSt3__19allocatorINS_11__hash_nodeINS_17__hash_value_typeIm8workflowEEPvEEE10deallocateB7v160006EPS6_m, symObjAddr: 0x63D0, symBinAddr: 0x100007998, symSize: 0x44 }
  - { offsetInCU: 0x26A7D, offset: 0x26A7D, size: 0x8, addend: 0x0, symName: __ZNSt3__122__compressed_pair_elemINS_16__hash_node_baseIPNS_11__hash_nodeINS_17__hash_value_typeIm8workflowEEPvEEEELi0ELb0EE5__getB7v160006Ev, symObjAddr: 0x6414, symBinAddr: 0x1000079DC, symSize: 0x14 }
  - { offsetInCU: 0x26AA3, offset: 0x26AA3, size: 0x8, addend: 0x0, symName: __ZNSt3__110unique_ptrIA_PNS_16__hash_node_baseIPNS_11__hash_nodeINS_17__hash_value_typeIm8workflowEEPvEEEENS_25__bucket_list_deallocatorINS_9allocatorISA_EEEEED2B7v160006Ev, symObjAddr: 0x6428, symBinAddr: 0x1000079F0, symSize: 0x30 }
  - { offsetInCU: 0x26ACD, offset: 0x26ACD, size: 0x8, addend: 0x0, symName: __ZNSt3__110unique_ptrIA_PNS_16__hash_node_baseIPNS_11__hash_nodeINS_17__hash_value_typeIm8workflowEEPvEEEENS_25__bucket_list_deallocatorINS_9allocatorISA_EEEEE5resetB7v160006EDn, symObjAddr: 0x6458, symBinAddr: 0x100007A20, symSize: 0x6C }
  - { offsetInCU: 0x26B0D, offset: 0x26B0D, size: 0x8, addend: 0x0, symName: __ZNSt3__117__compressed_pairIPPNS_16__hash_node_baseIPNS_11__hash_nodeINS_17__hash_value_typeIm8workflowEEPvEEEENS_25__bucket_list_deallocatorINS_9allocatorISA_EEEEE5firstB7v160006Ev, symObjAddr: 0x64C4, symBinAddr: 0x100007A8C, symSize: 0x24 }
  - { offsetInCU: 0x26B33, offset: 0x26B33, size: 0x8, addend: 0x0, symName: __ZNSt3__117__compressed_pairIPPNS_16__hash_node_baseIPNS_11__hash_nodeINS_17__hash_value_typeIm8workflowEEPvEEEENS_25__bucket_list_deallocatorINS_9allocatorISA_EEEEE6secondB7v160006Ev, symObjAddr: 0x64E8, symBinAddr: 0x100007AB0, symSize: 0x28 }
  - { offsetInCU: 0x26B59, offset: 0x26B59, size: 0x8, addend: 0x0, symName: __ZNSt3__125__bucket_list_deallocatorINS_9allocatorIPNS_16__hash_node_baseIPNS_11__hash_nodeINS_17__hash_value_typeIm8workflowEEPvEEEEEEEclB7v160006EPSB_, symObjAddr: 0x6510, symBinAddr: 0x100007AD8, symSize: 0x58 }
  - { offsetInCU: 0x26B8E, offset: 0x26B8E, size: 0x8, addend: 0x0, symName: __ZNSt3__122__compressed_pair_elemIPPNS_16__hash_node_baseIPNS_11__hash_nodeINS_17__hash_value_typeIm8workflowEEPvEEEELi0ELb0EE5__getB7v160006Ev, symObjAddr: 0x6568, symBinAddr: 0x100007B30, symSize: 0x14 }
  - { offsetInCU: 0x26BB4, offset: 0x26BB4, size: 0x8, addend: 0x0, symName: __ZNSt3__122__compressed_pair_elemINS_25__bucket_list_deallocatorINS_9allocatorIPNS_16__hash_node_baseIPNS_11__hash_nodeINS_17__hash_value_typeIm8workflowEEPvEEEEEEEELi1ELb0EE5__getB7v160006Ev, symObjAddr: 0x657C, symBinAddr: 0x100007B44, symSize: 0x14 }
  - { offsetInCU: 0x26BDA, offset: 0x26BDA, size: 0x8, addend: 0x0, symName: __ZNSt3__116allocator_traitsINS_9allocatorIPNS_16__hash_node_baseIPNS_11__hash_nodeINS_17__hash_value_typeIm8workflowEEPvEEEEEEE10deallocateB7v160006ERSC_PSB_m, symObjAddr: 0x6590, symBinAddr: 0x100007B58, symSize: 0x34 }
  - { offsetInCU: 0x26C1C, offset: 0x26C1C, size: 0x8, addend: 0x0, symName: __ZNSt3__125__bucket_list_deallocatorINS_9allocatorIPNS_16__hash_node_baseIPNS_11__hash_nodeINS_17__hash_value_typeIm8workflowEEPvEEEEEEE7__allocB7v160006Ev, symObjAddr: 0x65C4, symBinAddr: 0x100007B8C, symSize: 0x24 }
  - { offsetInCU: 0x26C42, offset: 0x26C42, size: 0x8, addend: 0x0, symName: __ZNSt3__125__bucket_list_deallocatorINS_9allocatorIPNS_16__hash_node_baseIPNS_11__hash_nodeINS_17__hash_value_typeIm8workflowEEPvEEEEEEE4sizeB7v160006Ev, symObjAddr: 0x65E8, symBinAddr: 0x100007BB0, symSize: 0x24 }
  - { offsetInCU: 0x26C68, offset: 0x26C68, size: 0x8, addend: 0x0, symName: __ZNSt3__19allocatorIPNS_16__hash_node_baseIPNS_11__hash_nodeINS_17__hash_value_typeIm8workflowEEPvEEEEE10deallocateB7v160006EPSA_m, symObjAddr: 0x660C, symBinAddr: 0x100007BD4, symSize: 0x40 }
  - { offsetInCU: 0x26CAA, offset: 0x26CAA, size: 0x8, addend: 0x0, symName: __ZNSt3__117__compressed_pairImNS_9allocatorIPNS_16__hash_node_baseIPNS_11__hash_nodeINS_17__hash_value_typeIm8workflowEEPvEEEEEEE6secondB7v160006Ev, symObjAddr: 0x664C, symBinAddr: 0x100007C14, symSize: 0x24 }
  - { offsetInCU: 0x26CD0, offset: 0x26CD0, size: 0x8, addend: 0x0, symName: __ZNSt3__122__compressed_pair_elemINS_9allocatorIPNS_16__hash_node_baseIPNS_11__hash_nodeINS_17__hash_value_typeIm8workflowEEPvEEEEEELi1ELb1EE5__getB7v160006Ev, symObjAddr: 0x6670, symBinAddr: 0x100007C38, symSize: 0x14 }
  - { offsetInCU: 0x26CF6, offset: 0x26CF6, size: 0x8, addend: 0x0, symName: __ZNSt3__117__compressed_pairImNS_9allocatorIPNS_16__hash_node_baseIPNS_11__hash_nodeINS_17__hash_value_typeIm8workflowEEPvEEEEEEE5firstB7v160006Ev, symObjAddr: 0x6684, symBinAddr: 0x100007C4C, symSize: 0x24 }
  - { offsetInCU: 0x26D1C, offset: 0x26D1C, size: 0x8, addend: 0x0, symName: __ZNSt3__113unordered_mapINS_12basic_stringIcNS_11char_traitsIcEENS_9allocatorIcEEEEmNS_4hashIS6_EENS_8equal_toIS6_EENS4_INS_4pairIKS6_mEEEEED2B7v160006Ev, symObjAddr: 0x66A8, symBinAddr: 0x100007C70, symSize: 0x2C }
  - { offsetInCU: 0x26D46, offset: 0x26D46, size: 0x8, addend: 0x0, symName: __ZNSt3__112__hash_tableINS_17__hash_value_typeINS_12basic_stringIcNS_11char_traitsIcEENS_9allocatorIcEEEEmEENS_22__unordered_map_hasherIS7_S8_NS_4hashIS7_EENS_8equal_toIS7_EELb1EEENS_21__unordered_map_equalIS7_S8_SD_SB_Lb1EEENS5_IS8_EEED1Ev, symObjAddr: 0x66D4, symBinAddr: 0x100007C9C, symSize: 0x2C }
  - { offsetInCU: 0x26D72, offset: 0x26D72, size: 0x8, addend: 0x0, symName: __ZNSt3__112__hash_tableINS_17__hash_value_typeINS_12basic_stringIcNS_11char_traitsIcEENS_9allocatorIcEEEEmEENS_22__unordered_map_hasherIS7_S8_NS_4hashIS7_EENS_8equal_toIS7_EELb1EEENS_21__unordered_map_equalIS7_S8_SD_SB_Lb1EEENS5_IS8_EEED2Ev, symObjAddr: 0x6700, symBinAddr: 0x100007CC8, symSize: 0x58 }
  - { offsetInCU: 0x26D9E, offset: 0x26D9E, size: 0x8, addend: 0x0, symName: __ZNSt3__112__hash_tableINS_17__hash_value_typeINS_12basic_stringIcNS_11char_traitsIcEENS_9allocatorIcEEEEmEENS_22__unordered_map_hasherIS7_S8_NS_4hashIS7_EENS_8equal_toIS7_EELb1EEENS_21__unordered_map_equalIS7_S8_SD_SB_Lb1EEENS5_IS8_EEE17__deallocate_nodeEPNS_16__hash_node_baseIPNS_11__hash_nodeIS8_PvEEEE, symObjAddr: 0x6758, symBinAddr: 0x100007D20, symSize: 0xA8 }
  - { offsetInCU: 0x26E08, offset: 0x26E08, size: 0x8, addend: 0x0, symName: __ZNSt3__110unique_ptrIA_PNS_16__hash_node_baseIPNS_11__hash_nodeINS_17__hash_value_typeINS_12basic_stringIcNS_11char_traitsIcEENS_9allocatorIcEEEEmEEPvEEEENS_25__bucket_list_deallocatorINS7_ISF_EEEEED1B7v160006Ev, symObjAddr: 0x6810, symBinAddr: 0x100007DD8, symSize: 0x2C }
  - { offsetInCU: 0x26E32, offset: 0x26E32, size: 0x8, addend: 0x0, symName: __ZNSt3__110unique_ptrIA_PNS_16__hash_node_baseIPNS_11__hash_nodeINS_17__hash_value_typeINS_12basic_stringIcNS_11char_traitsIcEENS_9allocatorIcEEEEmEEPvEEEENS_25__bucket_list_deallocatorINS7_ISF_EEEEED2B7v160006Ev, symObjAddr: 0x683C, symBinAddr: 0x100007E04, symSize: 0x30 }
  - { offsetInCU: 0x26E5C, offset: 0x26E5C, size: 0x8, addend: 0x0, symName: __ZNSt3__110unique_ptrIA_PNS_16__hash_node_baseIPNS_11__hash_nodeINS_17__hash_value_typeINS_12basic_stringIcNS_11char_traitsIcEENS_9allocatorIcEEEEmEEPvEEEENS_25__bucket_list_deallocatorINS7_ISF_EEEEE5resetB7v160006EDn, symObjAddr: 0x686C, symBinAddr: 0x100007E34, symSize: 0x6C }
  - { offsetInCU: 0x26E9C, offset: 0x26E9C, size: 0x8, addend: 0x0, symName: __ZN9workflows6_parseENSt3__112basic_stringIcNS0_11char_traitsIcEENS0_9allocatorIcEEEE, symObjAddr: 0x68D8, symBinAddr: 0x100007EA0, symSize: 0x4F0 }
  - { offsetInCU: 0x26F4E, offset: 0x26F4E, size: 0x8, addend: 0x0, symName: __ZNSt3__16vectorIN8workflow11requirementENS_9allocatorIS2_EEEC1ERKS5_, symObjAddr: 0x6DC8, symBinAddr: 0x100008390, symSize: 0x34 }
  - { offsetInCU: 0x26F89, offset: 0x26F89, size: 0x8, addend: 0x0, symName: __ZN8workflowC1ENSt3__16vectorINS_11requirementENS0_9allocatorIS2_EEEENS0_12basic_stringIcNS0_11char_traitsIcEENS3_IcEEEE, symObjAddr: 0x6DFC, symBinAddr: 0x1000083C4, symSize: 0x3C }
  - { offsetInCU: 0x26FD1, offset: 0x26FD1, size: 0x8, addend: 0x0, symName: __ZNSt3__113unordered_mapIm8workflowNS_4hashImEENS_8equal_toImEENS_9allocatorINS_4pairIKmS1_EEEEEixEOm, symObjAddr: 0x6E38, symBinAddr: 0x100008400, symSize: 0x80 }
  - { offsetInCU: 0x27008, offset: 0x27008, size: 0x8, addend: 0x0, symName: __ZN9workflows5getIdENSt3__112basic_stringIcNS0_11char_traitsIcEENS0_9allocatorIcEEEE, symObjAddr: 0x6EB8, symBinAddr: 0x100008480, symSize: 0x80 }
  - { offsetInCU: 0x2704E, offset: 0x2704E, size: 0x8, addend: 0x0, symName: __ZN8workflowaSERKS_, symObjAddr: 0x6F38, symBinAddr: 0x100008500, symSize: 0x48 }
  - { offsetInCU: 0x2707F, offset: 0x2707F, size: 0x8, addend: 0x0, symName: __ZNSt3__14pairINS_12basic_stringIcNS_11char_traitsIcEENS_9allocatorIcEEEENS_6vectorIN8workflow11requirementENS4_IS9_EEEEED1Ev, symObjAddr: 0x6F80, symBinAddr: 0x100008548, symSize: 0x2C }
  - { offsetInCU: 0x270AB, offset: 0x270AB, size: 0x8, addend: 0x0, symName: __ZNSt3__112basic_stringIcNS_11char_traitsIcEENS_9allocatorIcEEEixB7v160006Em, symObjAddr: 0x6FAC, symBinAddr: 0x100008574, symSize: 0x30 }
  - { offsetInCU: 0x270E0, offset: 0x270E0, size: 0x8, addend: 0x0, symName: __ZNSt3__112basic_stringIcNS_11char_traitsIcEENS_9allocatorIcEEEpLB7v160006Ec, symObjAddr: 0x6FDC, symBinAddr: 0x1000085A4, symSize: 0x34 }
  - { offsetInCU: 0x27115, offset: 0x27115, size: 0x8, addend: 0x0, symName: __ZNSt3__112basic_stringIcNS_11char_traitsIcEENS_9allocatorIcEEE5clearB7v160006Ev, symObjAddr: 0x7010, symBinAddr: 0x1000085D8, symSize: 0x88 }
  - { offsetInCU: 0x2713D, offset: 0x2713D, size: 0x8, addend: 0x0, symName: __ZNSt3__16vectorIN8workflow11requirementENS_9allocatorIS2_EEEC1B7v160006Ev, symObjAddr: 0x7098, symBinAddr: 0x100008660, symSize: 0x2C }
  - { offsetInCU: 0x27167, offset: 0x27167, size: 0x8, addend: 0x0, symName: __ZNKSt3__112basic_stringIcNS_11char_traitsIcEENS_9allocatorIcEEE6substrB7v160006Emm, symObjAddr: 0x70C4, symBinAddr: 0x10000868C, symSize: 0x68 }
  - { offsetInCU: 0x271AB, offset: 0x271AB, size: 0x8, addend: 0x0, symName: __ZNSt3__16vectorIN8workflow11requirementENS_9allocatorIS2_EEE9push_backB7v160006EOS2_, symObjAddr: 0x712C, symBinAddr: 0x1000086F4, symSize: 0x6C }
  - { offsetInCU: 0x271E2, offset: 0x271E2, size: 0x8, addend: 0x0, symName: __ZN8workflow11requirementC1ENS_3reqEbii, symObjAddr: 0x7198, symBinAddr: 0x100008760, symSize: 0x58 }
  - { offsetInCU: 0x27244, offset: 0x27244, size: 0x8, addend: 0x0, symName: __ZNSt3__112basic_stringIcNS_11char_traitsIcEENS_9allocatorIcEEE13__get_pointerB7v160006Ev, symObjAddr: 0x7230, symBinAddr: 0x1000087F8, symSize: 0x54 }
  - { offsetInCU: 0x2726A, offset: 0x2726A, size: 0x8, addend: 0x0, symName: __ZNSt3__112basic_stringIcNS_11char_traitsIcEENS_9allocatorIcEEE18__get_long_pointerB7v160006Ev, symObjAddr: 0x7284, symBinAddr: 0x10000884C, symSize: 0x28 }
  - { offsetInCU: 0x27290, offset: 0x27290, size: 0x8, addend: 0x0, symName: __ZNSt3__112basic_stringIcNS_11char_traitsIcEENS_9allocatorIcEEE19__get_short_pointerB7v160006Ev, symObjAddr: 0x72AC, symBinAddr: 0x100008874, symSize: 0x28 }
  - { offsetInCU: 0x272B6, offset: 0x272B6, size: 0x8, addend: 0x0, symName: __ZNSt3__114pointer_traitsIPcE10pointer_toB7v160006ERc, symObjAddr: 0x72D4, symBinAddr: 0x10000889C, symSize: 0x14 }
  - { offsetInCU: 0x272D9, offset: 0x272D9, size: 0x8, addend: 0x0, symName: __ZNSt3__111char_traitsIcE6assignERcRKc, symObjAddr: 0x72F8, symBinAddr: 0x1000088C0, symSize: 0x24 }
  - { offsetInCU: 0x2730A, offset: 0x2730A, size: 0x8, addend: 0x0, symName: __ZNSt3__112basic_stringIcNS_11char_traitsIcEENS_9allocatorIcEEE15__set_long_sizeB7v160006Em, symObjAddr: 0x731C, symBinAddr: 0x1000088E4, symSize: 0x38 }
  - { offsetInCU: 0x2733F, offset: 0x2733F, size: 0x8, addend: 0x0, symName: __ZNSt3__112basic_stringIcNS_11char_traitsIcEENS_9allocatorIcEEE16__set_short_sizeB7v160006Em, symObjAddr: 0x7354, symBinAddr: 0x10000891C, symSize: 0x78 }
  - { offsetInCU: 0x27374, offset: 0x27374, size: 0x8, addend: 0x0, symName: __ZNSt3__16vectorIN8workflow11requirementENS_9allocatorIS2_EEEC2B7v160006Ev, symObjAddr: 0x73CC, symBinAddr: 0x100008994, symSize: 0x58 }
  - { offsetInCU: 0x273A4, offset: 0x273A4, size: 0x8, addend: 0x0, symName: __ZNSt3__117__compressed_pairIPN8workflow11requirementENS_9allocatorIS2_EEEC1B7v160006IDnNS_18__default_init_tagEEEOT_OT0_, symObjAddr: 0x7424, symBinAddr: 0x1000089EC, symSize: 0x3C }
  - { offsetInCU: 0x273FC, offset: 0x273FC, size: 0x8, addend: 0x0, symName: __ZNSt3__117__compressed_pairIPN8workflow11requirementENS_9allocatorIS2_EEEC2B7v160006IDnNS_18__default_init_tagEEEOT_OT0_, symObjAddr: 0x7470, symBinAddr: 0x100008A38, symSize: 0x40 }
  - { offsetInCU: 0x27454, offset: 0x27454, size: 0x8, addend: 0x0, symName: __ZNSt3__122__compressed_pair_elemIPN8workflow11requirementELi0ELb0EEC2B7v160006IDnvEEOT_, symObjAddr: 0x74B0, symBinAddr: 0x100008A78, symSize: 0x1C }
  - { offsetInCU: 0x27496, offset: 0x27496, size: 0x8, addend: 0x0, symName: __ZNSt3__122__compressed_pair_elemINS_9allocatorIN8workflow11requirementEEELi1ELb1EEC2B7v160006ENS_18__default_init_tagE, symObjAddr: 0x74CC, symBinAddr: 0x100008A94, symSize: 0x2C }
  - { offsetInCU: 0x274CA, offset: 0x274CA, size: 0x8, addend: 0x0, symName: __ZNSt3__19allocatorIN8workflow11requirementEEC2B7v160006Ev, symObjAddr: 0x74F8, symBinAddr: 0x100008AC0, symSize: 0x2C }
  - { offsetInCU: 0x274F4, offset: 0x274F4, size: 0x8, addend: 0x0, symName: __ZNSt3__116__non_trivial_ifILb1ENS_9allocatorIN8workflow11requirementEEEEC2B7v160006Ev, symObjAddr: 0x7524, symBinAddr: 0x100008AEC, symSize: 0x14 }
  - { offsetInCU: 0x2751E, offset: 0x2751E, size: 0x8, addend: 0x0, symName: __ZNSt3__19allocatorIcEC1B7v160006Ev, symObjAddr: 0x7538, symBinAddr: 0x100008B00, symSize: 0x2C }
  - { offsetInCU: 0x27548, offset: 0x27548, size: 0x8, addend: 0x0, symName: __ZNSt3__16vectorIN8workflow11requirementENS_9allocatorIS2_EEE9__end_capB7v160006Ev, symObjAddr: 0x7564, symBinAddr: 0x100008B2C, symSize: 0x28 }
  - { offsetInCU: 0x27574, offset: 0x27574, size: 0x8, addend: 0x0, symName: __ZNSt3__16vectorIN8workflow11requirementENS_9allocatorIS2_EEE22__construct_one_at_endB7v160006IJS2_EEEvDpOT_, symObjAddr: 0x758C, symBinAddr: 0x100008B54, symSize: 0x90 }
  - { offsetInCU: 0x275C3, offset: 0x275C3, size: 0x8, addend: 0x0, symName: __ZNSt3__16vectorIN8workflow11requirementENS_9allocatorIS2_EEE21__push_back_slow_pathIS2_EEvOT_, symObjAddr: 0x761C, symBinAddr: 0x100008BE4, symSize: 0xD8 }
  - { offsetInCU: 0x27621, offset: 0x27621, size: 0x8, addend: 0x0, symName: __ZNSt3__117__compressed_pairIPN8workflow11requirementENS_9allocatorIS2_EEE5firstB7v160006Ev, symObjAddr: 0x76F4, symBinAddr: 0x100008CBC, symSize: 0x24 }
  - { offsetInCU: 0x27647, offset: 0x27647, size: 0x8, addend: 0x0, symName: __ZNSt3__122__compressed_pair_elemIPN8workflow11requirementELi0ELb0EE5__getB7v160006Ev, symObjAddr: 0x7718, symBinAddr: 0x100008CE0, symSize: 0x14 }
  - { offsetInCU: 0x27689, offset: 0x27689, size: 0x8, addend: 0x0, symName: __ZNSt3__16vectorIN8workflow11requirementENS_9allocatorIS2_EEE21_ConstructTransactionC1B7v160006ERS5_m, symObjAddr: 0x772C, symBinAddr: 0x100008CF4, symSize: 0x3C }
  - { offsetInCU: 0x276D1, offset: 0x276D1, size: 0x8, addend: 0x0, symName: __ZNSt3__116allocator_traitsINS_9allocatorIN8workflow11requirementEEEE9constructB7v160006IS3_JS3_EvvEEvRS4_PT_DpOT0_, symObjAddr: 0x7768, symBinAddr: 0x100008D30, symSize: 0x30 }
  - { offsetInCU: 0x27725, offset: 0x27725, size: 0x8, addend: 0x0, symName: __ZNSt3__16vectorIN8workflow11requirementENS_9allocatorIS2_EEE21_ConstructTransactionD1B7v160006Ev, symObjAddr: 0x7798, symBinAddr: 0x100008D60, symSize: 0x2C }
  - { offsetInCU: 0x2774F, offset: 0x2774F, size: 0x8, addend: 0x0, symName: __ZNSt3__16vectorIN8workflow11requirementENS_9allocatorIS2_EEE21_ConstructTransactionC2B7v160006ERS5_m, symObjAddr: 0x77C4, symBinAddr: 0x100008D8C, symSize: 0x44 }
  - { offsetInCU: 0x27797, offset: 0x27797, size: 0x8, addend: 0x0, symName: __ZNSt3__16vectorIN8workflow11requirementENS_9allocatorIS2_EEE21_ConstructTransactionD2B7v160006Ev, symObjAddr: 0x7834, symBinAddr: 0x100008DFC, symSize: 0x20 }
  - { offsetInCU: 0x277C1, offset: 0x277C1, size: 0x8, addend: 0x0, symName: __ZNKSt3__16vectorIN8workflow11requirementENS_9allocatorIS2_EEE11__recommendB7v160006Em, symObjAddr: 0x7854, symBinAddr: 0x100008E1C, symSize: 0xB4 }
  - { offsetInCU: 0x27816, offset: 0x27816, size: 0x8, addend: 0x0, symName: __ZNSt3__114__split_bufferIN8workflow11requirementERNS_9allocatorIS2_EEEC1EmmS5_, symObjAddr: 0x7908, symBinAddr: 0x100008ED0, symSize: 0x44 }
  - { offsetInCU: 0x2786C, offset: 0x2786C, size: 0x8, addend: 0x0, symName: __ZNSt3__114__split_bufferIN8workflow11requirementERNS_9allocatorIS2_EEED1Ev, symObjAddr: 0x7A64, symBinAddr: 0x10000902C, symSize: 0x2C }
  - { offsetInCU: 0x27898, offset: 0x27898, size: 0x8, addend: 0x0, symName: __ZNKSt3__16vectorIN8workflow11requirementENS_9allocatorIS2_EEE8max_sizeEv, symObjAddr: 0x7A90, symBinAddr: 0x100009058, symSize: 0x60 }
  - { offsetInCU: 0x278C0, offset: 0x278C0, size: 0x8, addend: 0x0, symName: __ZNKSt3__16vectorIN8workflow11requirementENS_9allocatorIS2_EEE20__throw_length_errorB7v160006Ev, symObjAddr: 0x7AF0, symBinAddr: 0x1000090B8, symSize: 0x1C }
  - { offsetInCU: 0x278F1, offset: 0x278F1, size: 0x8, addend: 0x0, symName: __ZNSt3__116allocator_traitsINS_9allocatorIN8workflow11requirementEEEE8max_sizeB7v160006IS4_vvEEmRKS4_, symObjAddr: 0x7B38, symBinAddr: 0x100009100, symSize: 0x28 }
  - { offsetInCU: 0x2791C, offset: 0x2791C, size: 0x8, addend: 0x0, symName: __ZNKSt3__16vectorIN8workflow11requirementENS_9allocatorIS2_EEE7__allocB7v160006Ev, symObjAddr: 0x7B60, symBinAddr: 0x100009128, symSize: 0x28 }
  - { offsetInCU: 0x27942, offset: 0x27942, size: 0x8, addend: 0x0, symName: __ZNSt3__114numeric_limitsIlE3maxB7v160006Ev, symObjAddr: 0x7B88, symBinAddr: 0x100009150, symSize: 0x14 }
  - { offsetInCU: 0x27956, offset: 0x27956, size: 0x8, addend: 0x0, symName: __ZNKSt3__117__compressed_pairIPN8workflow11requirementENS_9allocatorIS2_EEE6secondB7v160006Ev, symObjAddr: 0x7BF0, symBinAddr: 0x1000091B8, symSize: 0x24 }
  - { offsetInCU: 0x2797C, offset: 0x2797C, size: 0x8, addend: 0x0, symName: __ZNKSt3__122__compressed_pair_elemINS_9allocatorIN8workflow11requirementEEELi1ELb1EE5__getB7v160006Ev, symObjAddr: 0x7C14, symBinAddr: 0x1000091DC, symSize: 0x14 }
  - { offsetInCU: 0x279A2, offset: 0x279A2, size: 0x8, addend: 0x0, symName: __ZNSt3__123__libcpp_numeric_limitsIlLb1EE3maxB7v160006Ev, symObjAddr: 0x7C28, symBinAddr: 0x1000091F0, symSize: 0x8 }
  - { offsetInCU: 0x279B6, offset: 0x279B6, size: 0x8, addend: 0x0, symName: __ZNSt12length_errorC1B7v160006EPKc, symObjAddr: 0x7C94, symBinAddr: 0x10000925C, symSize: 0x34 }
  - { offsetInCU: 0x279EE, offset: 0x279EE, size: 0x8, addend: 0x0, symName: __ZNSt12length_errorC2B7v160006EPKc, symObjAddr: 0x7CC8, symBinAddr: 0x100009290, symSize: 0x4C }
  - { offsetInCU: 0x27A26, offset: 0x27A26, size: 0x8, addend: 0x0, symName: __ZNSt3__114__split_bufferIN8workflow11requirementERNS_9allocatorIS2_EEEC2EmmS5_, symObjAddr: 0x7D14, symBinAddr: 0x1000092DC, symSize: 0xD4 }
  - { offsetInCU: 0x27A99, offset: 0x27A99, size: 0x8, addend: 0x0, symName: __ZNSt3__117__compressed_pairIPN8workflow11requirementERNS_9allocatorIS2_EEEC1B7v160006IDnS6_EEOT_OT0_, symObjAddr: 0x7DE8, symBinAddr: 0x1000093B0, symSize: 0x3C }
  - { offsetInCU: 0x27AF1, offset: 0x27AF1, size: 0x8, addend: 0x0, symName: __ZNSt3__114__split_bufferIN8workflow11requirementERNS_9allocatorIS2_EEE7__allocB7v160006Ev, symObjAddr: 0x7E64, symBinAddr: 0x10000942C, symSize: 0x28 }
  - { offsetInCU: 0x27B17, offset: 0x27B17, size: 0x8, addend: 0x0, symName: __ZNSt3__114__split_bufferIN8workflow11requirementERNS_9allocatorIS2_EEE9__end_capB7v160006Ev, symObjAddr: 0x7E8C, symBinAddr: 0x100009454, symSize: 0x28 }
  - { offsetInCU: 0x27B3D, offset: 0x27B3D, size: 0x8, addend: 0x0, symName: __ZNSt3__117__compressed_pairIPN8workflow11requirementERNS_9allocatorIS2_EEEC2B7v160006IDnS6_EEOT_OT0_, symObjAddr: 0x7EB4, symBinAddr: 0x10000947C, symSize: 0x48 }
  - { offsetInCU: 0x27B95, offset: 0x27B95, size: 0x8, addend: 0x0, symName: __ZNSt3__122__compressed_pair_elemIRNS_9allocatorIN8workflow11requirementEEELi1ELb0EEC2B7v160006IS5_vEEOT_, symObjAddr: 0x7EFC, symBinAddr: 0x1000094C4, symSize: 0x20 }
  - { offsetInCU: 0x27BD7, offset: 0x27BD7, size: 0x8, addend: 0x0, symName: __ZNSt3__19allocatorIN8workflow11requirementEE8allocateB7v160006Em, symObjAddr: 0x7F1C, symBinAddr: 0x1000094E4, symSize: 0x58 }
  - { offsetInCU: 0x27C0B, offset: 0x27C0B, size: 0x8, addend: 0x0, symName: __ZNSt3__117__compressed_pairIPN8workflow11requirementERNS_9allocatorIS2_EEE6secondB7v160006Ev, symObjAddr: 0x7F74, symBinAddr: 0x10000953C, symSize: 0x28 }
  - { offsetInCU: 0x27C31, offset: 0x27C31, size: 0x8, addend: 0x0, symName: __ZNSt3__122__compressed_pair_elemIRNS_9allocatorIN8workflow11requirementEEELi1ELb0EE5__getB7v160006Ev, symObjAddr: 0x7F9C, symBinAddr: 0x100009564, symSize: 0x18 }
  - { offsetInCU: 0x27C57, offset: 0x27C57, size: 0x8, addend: 0x0, symName: __ZNSt3__117__compressed_pairIPN8workflow11requirementERNS_9allocatorIS2_EEE5firstB7v160006Ev, symObjAddr: 0x7FB4, symBinAddr: 0x10000957C, symSize: 0x24 }
  - { offsetInCU: 0x27C7D, offset: 0x27C7D, size: 0x8, addend: 0x0, symName: __ZNSt3__116reverse_iteratorIPN8workflow11requirementEEC1B7v160006ES3_, symObjAddr: 0x8050, symBinAddr: 0x100009618, symSize: 0x34 }
  - { offsetInCU: 0x27CB5, offset: 0x27CB5, size: 0x8, addend: 0x0, symName: __ZNKSt3__116reverse_iteratorIPN8workflow11requirementEE4baseB7v160006Ev, symObjAddr: 0x8084, symBinAddr: 0x10000964C, symSize: 0x18 }
  - { offsetInCU: 0x27CDB, offset: 0x27CDB, size: 0x8, addend: 0x0, symName: __ZNKSt3__16vectorIN8workflow11requirementENS_9allocatorIS2_EEE14__annotate_newB7v160006Em, symObjAddr: 0x80D8, symBinAddr: 0x1000096A0, symSize: 0xAC }
  - { offsetInCU: 0x27D38, offset: 0x27D38, size: 0x8, addend: 0x0, symName: __ZNKSt3__111__move_loopINS_17_ClassicAlgPolicyEEclB7v160006INS_16reverse_iteratorIPN8workflow11requirementEEES8_S8_EENS_4pairIT_T1_EESA_T0_SB_, symObjAddr: 0x844C, symBinAddr: 0x100009A14, symSize: 0xA0 }
  - { offsetInCU: 0x27DA3, offset: 0x27DA3, size: 0x8, addend: 0x0, symName: __ZNSt3__119__unwrap_range_implINS_16reverse_iteratorIPN8workflow11requirementEEES5_E8__unwrapB7v160006ES5_S5_, symObjAddr: 0x8638, symBinAddr: 0x100009C00, symSize: 0x84 }
  - { offsetInCU: 0x27DDA, offset: 0x27DDA, size: 0x8, addend: 0x0, symName: __ZNSt3__14pairINS_16reverse_iteratorIPN8workflow11requirementEEES5_EC1B7v160006IS5_S5_LPv0EEEOT_OT0_, symObjAddr: 0x86BC, symBinAddr: 0x100009C84, symSize: 0x3C }
  - { offsetInCU: 0x27E38, offset: 0x27E38, size: 0x8, addend: 0x0, symName: __ZNSt3__14pairINS_16reverse_iteratorIPN8workflow11requirementEEES5_EC2B7v160006IS5_S5_LPv0EEEOT_OT0_, symObjAddr: 0x86F8, symBinAddr: 0x100009CC0, symSize: 0x34 }
  - { offsetInCU: 0x27E96, offset: 0x27E96, size: 0x8, addend: 0x0, symName: __ZNSt3__18_IterOpsINS_17_ClassicAlgPolicyEE11__iter_moveB7v160006IRNS_16reverse_iteratorIPN8workflow11requirementEEEEENS_9enable_ifIXsr12is_referenceIDTdeclsr3stdE7declvalIRT_EEEEE5valueEDTclsr3stdE4movedeclsr3stdE7declvalISC_EEEEE4typeEOSB_, symObjAddr: 0x8774, symBinAddr: 0x100009D3C, symSize: 0x28 }
  - { offsetInCU: 0x27EC2, offset: 0x27EC2, size: 0x8, addend: 0x0, symName: __ZNKSt3__116reverse_iteratorIPN8workflow11requirementEEdeB7v160006Ev, symObjAddr: 0x879C, symBinAddr: 0x100009D64, symSize: 0x28 }
  - { offsetInCU: 0x27EF6, offset: 0x27EF6, size: 0x8, addend: 0x0, symName: __ZNSt3__116reverse_iteratorIPN8workflow11requirementEEppB7v160006Ev, symObjAddr: 0x87C4, symBinAddr: 0x100009D8C, symSize: 0x20 }
  - { offsetInCU: 0x27F1C, offset: 0x27F1C, size: 0x8, addend: 0x0, symName: __ZNSt3__18_IterOpsINS_17_ClassicAlgPolicyEE25__validate_iter_referenceB7v160006IRNS_16reverse_iteratorIPN8workflow11requirementEEEEEvv, symObjAddr: 0x87E4, symBinAddr: 0x100009DAC, symSize: 0x4 }
  - { offsetInCU: 0x27F3A, offset: 0x27F3A, size: 0x8, addend: 0x0, symName: __ZNSt3__118__unwrap_iter_implINS_16reverse_iteratorIPN8workflow11requirementEEELb0EE8__unwrapB7v160006ES5_, symObjAddr: 0x87E8, symBinAddr: 0x100009DB0, symSize: 0x24 }
  - { offsetInCU: 0x27F5D, offset: 0x27F5D, size: 0x8, addend: 0x0, symName: __ZNSt3__119__unwrap_range_implINS_16reverse_iteratorIPN8workflow11requirementEEES5_E8__rewrapB7v160006ES5_S5_, symObjAddr: 0x880C, symBinAddr: 0x100009DD4, symSize: 0x5C }
  - { offsetInCU: 0x27F8E, offset: 0x27F8E, size: 0x8, addend: 0x0, symName: __ZNSt3__118__unwrap_iter_implINS_16reverse_iteratorIPN8workflow11requirementEEELb0EE8__rewrapB7v160006ES5_S5_, symObjAddr: 0x8868, symBinAddr: 0x100009E30, symSize: 0x2C }
  - { offsetInCU: 0x27FBB, offset: 0x27FBB, size: 0x8, addend: 0x0, symName: __ZNSt3__116reverse_iteratorIPN8workflow11requirementEEC2B7v160006ES3_, symObjAddr: 0x8894, symBinAddr: 0x100009E5C, symSize: 0x28 }
  - { offsetInCU: 0x27FF3, offset: 0x27FF3, size: 0x8, addend: 0x0, symName: __ZNSt3__114__split_bufferIN8workflow11requirementERNS_9allocatorIS2_EEED2Ev, symObjAddr: 0x88BC, symBinAddr: 0x100009E84, symSize: 0x8C }
  - { offsetInCU: 0x2801F, offset: 0x2801F, size: 0x8, addend: 0x0, symName: __ZNSt3__114__split_bufferIN8workflow11requirementERNS_9allocatorIS2_EEE5clearB7v160006Ev, symObjAddr: 0x8948, symBinAddr: 0x100009F10, symSize: 0x28 }
  - { offsetInCU: 0x28045, offset: 0x28045, size: 0x8, addend: 0x0, symName: __ZNKSt3__114__split_bufferIN8workflow11requirementERNS_9allocatorIS2_EEE8capacityB7v160006Ev, symObjAddr: 0x8970, symBinAddr: 0x100009F38, symSize: 0x40 }
  - { offsetInCU: 0x2806B, offset: 0x2806B, size: 0x8, addend: 0x0, symName: __ZNSt3__114__split_bufferIN8workflow11requirementERNS_9allocatorIS2_EEE17__destruct_at_endB7v160006EPS2_, symObjAddr: 0x89B0, symBinAddr: 0x100009F78, symSize: 0x2C }
  - { offsetInCU: 0x2809F, offset: 0x2809F, size: 0x8, addend: 0x0, symName: __ZNSt3__114__split_bufferIN8workflow11requirementERNS_9allocatorIS2_EEE17__destruct_at_endB7v160006EPS2_NS_17integral_constantIbLb0EEE, symObjAddr: 0x89DC, symBinAddr: 0x100009FA4, symSize: 0x80 }
  - { offsetInCU: 0x280DF, offset: 0x280DF, size: 0x8, addend: 0x0, symName: __ZNKSt3__114__split_bufferIN8workflow11requirementERNS_9allocatorIS2_EEE9__end_capB7v160006Ev, symObjAddr: 0x8A5C, symBinAddr: 0x10000A024, symSize: 0x28 }
  - { offsetInCU: 0x28105, offset: 0x28105, size: 0x8, addend: 0x0, symName: __ZNKSt3__117__compressed_pairIPN8workflow11requirementERNS_9allocatorIS2_EEE5firstB7v160006Ev, symObjAddr: 0x8A84, symBinAddr: 0x10000A04C, symSize: 0x24 }
  - { offsetInCU: 0x2812B, offset: 0x2812B, size: 0x8, addend: 0x0, symName: __ZN8workflow11requirementC2ENS_3reqEbii, symObjAddr: 0x8AA8, symBinAddr: 0x10000A070, symSize: 0x50 }
  - { offsetInCU: 0x2818D, offset: 0x2818D, size: 0x8, addend: 0x0, symName: __ZNSt3__14pairINS_12basic_stringIcNS_11char_traitsIcEENS_9allocatorIcEEEENS_6vectorIN8workflow11requirementENS4_IS9_EEEEEC1B7v160006IRS6_RSB_LPv0EEEOT_OT0_, symObjAddr: 0x8AF8, symBinAddr: 0x10000A0C0, symSize: 0x3C }
  - { offsetInCU: 0x281EB, offset: 0x281EB, size: 0x8, addend: 0x0, symName: __ZNSt3__14pairINS_12basic_stringIcNS_11char_traitsIcEENS_9allocatorIcEEEENS_6vectorIN8workflow11requirementENS4_IS9_EEEEEC2B7v160006IRS6_RSB_LPv0EEEOT_OT0_, symObjAddr: 0x8B34, symBinAddr: 0x10000A0FC, symSize: 0x70 }
  - { offsetInCU: 0x28249, offset: 0x28249, size: 0x8, addend: 0x0, symName: __ZNSt3__16vectorIN8workflow11requirementENS_9allocatorIS2_EEEC2ERKS5_, symObjAddr: 0x8BA4, symBinAddr: 0x10000A16C, symSize: 0x110 }
  - { offsetInCU: 0x282A8, offset: 0x282A8, size: 0x8, addend: 0x0, symName: __ZNSt3__116allocator_traitsINS_9allocatorIN8workflow11requirementEEEE37select_on_container_copy_constructionB7v160006IS4_vvEES4_RKS4_, symObjAddr: 0x8CB4, symBinAddr: 0x10000A27C, symSize: 0x10 }
  - { offsetInCU: 0x282DD, offset: 0x282DD, size: 0x8, addend: 0x0, symName: __ZNSt3__117__compressed_pairIPN8workflow11requirementENS_9allocatorIS2_EEEC1B7v160006IDnS5_EEOT_OT0_, symObjAddr: 0x8CC4, symBinAddr: 0x10000A28C, symSize: 0x3C }
  - { offsetInCU: 0x28335, offset: 0x28335, size: 0x8, addend: 0x0, symName: __ZNSt3__16vectorIN8workflow11requirementENS_9allocatorIS2_EEE11__vallocateB7v160006Em, symObjAddr: 0x8D40, symBinAddr: 0x10000A308, symSize: 0xAC }
  - { offsetInCU: 0x28379, offset: 0x28379, size: 0x8, addend: 0x0, symName: __ZNSt3__16vectorIN8workflow11requirementENS_9allocatorIS2_EEE18__construct_at_endIPS2_Li0EEEvT_S8_m, symObjAddr: 0x8DEC, symBinAddr: 0x10000A3B4, symSize: 0x8C }
  - { offsetInCU: 0x283EC, offset: 0x283EC, size: 0x8, addend: 0x0, symName: __ZNSt3__128__exception_guard_exceptionsINS_6vectorIN8workflow11requirementENS_9allocatorIS3_EEE16__destroy_vectorEE10__completeB7v160006Ev, symObjAddr: 0x8E78, symBinAddr: 0x10000A440, symSize: 0x1C }
  - { offsetInCU: 0x28412, offset: 0x28412, size: 0x8, addend: 0x0, symName: __ZNSt3__128__exception_guard_exceptionsINS_6vectorIN8workflow11requirementENS_9allocatorIS3_EEE16__destroy_vectorEED1B7v160006Ev, symObjAddr: 0x8E94, symBinAddr: 0x10000A45C, symSize: 0x2C }
  - { offsetInCU: 0x2843C, offset: 0x2843C, size: 0x8, addend: 0x0, symName: __ZNSt3__117__compressed_pairIPN8workflow11requirementENS_9allocatorIS2_EEEC2B7v160006IDnS5_EEOT_OT0_, symObjAddr: 0x8EC0, symBinAddr: 0x10000A488, symSize: 0x44 }
  - { offsetInCU: 0x28494, offset: 0x28494, size: 0x8, addend: 0x0, symName: __ZNSt3__122__compressed_pair_elemINS_9allocatorIN8workflow11requirementEEELi1ELb1EEC2B7v160006IS4_vEEOT_, symObjAddr: 0x8F04, symBinAddr: 0x10000A4CC, symSize: 0x18 }
  - { offsetInCU: 0x284D6, offset: 0x284D6, size: 0x8, addend: 0x0, symName: __ZNSt3__128__exception_guard_exceptionsINS_6vectorIN8workflow11requirementENS_9allocatorIS3_EEE16__destroy_vectorEEC1B7v160006ES7_, symObjAddr: 0x8F1C, symBinAddr: 0x10000A4E4, symSize: 0x34 }
  - { offsetInCU: 0x2850E, offset: 0x2850E, size: 0x8, addend: 0x0, symName: __ZNSt3__128__exception_guard_exceptionsINS_6vectorIN8workflow11requirementENS_9allocatorIS3_EEE16__destroy_vectorEEC2B7v160006ES7_, symObjAddr: 0x8F50, symBinAddr: 0x10000A518, symSize: 0x24 }
  - { offsetInCU: 0x28546, offset: 0x28546, size: 0x8, addend: 0x0, symName: __ZNSt3__129_AllocatorDestroyRangeReverseINS_9allocatorIN8workflow11requirementEEEPS3_EC1B7v160006ERS4_RS5_S8_, symObjAddr: 0x90B4, symBinAddr: 0x10000A67C, symSize: 0x44 }
  - { offsetInCU: 0x2859D, offset: 0x2859D, size: 0x8, addend: 0x0, symName: __ZNSt3__116allocator_traitsINS_9allocatorIN8workflow11requirementEEEE9constructB7v160006IS3_JRS3_EvvEEvRS4_PT_DpOT0_, symObjAddr: 0x90F8, symBinAddr: 0x10000A6C0, symSize: 0x30 }
  - { offsetInCU: 0x285F1, offset: 0x285F1, size: 0x8, addend: 0x0, symName: __ZNSt3__128__exception_guard_exceptionsINS_29_AllocatorDestroyRangeReverseINS_9allocatorIN8workflow11requirementEEEPS4_EEE10__completeB7v160006Ev, symObjAddr: 0x9128, symBinAddr: 0x10000A6F0, symSize: 0x1C }
  - { offsetInCU: 0x28617, offset: 0x28617, size: 0x8, addend: 0x0, symName: __ZNSt3__128__exception_guard_exceptionsINS_29_AllocatorDestroyRangeReverseINS_9allocatorIN8workflow11requirementEEEPS4_EEED1B7v160006Ev, symObjAddr: 0x9144, symBinAddr: 0x10000A70C, symSize: 0x2C }
  - { offsetInCU: 0x28641, offset: 0x28641, size: 0x8, addend: 0x0, symName: __ZNSt3__128__exception_guard_exceptionsINS_29_AllocatorDestroyRangeReverseINS_9allocatorIN8workflow11requirementEEEPS4_EEEC1B7v160006ES7_, symObjAddr: 0x9170, symBinAddr: 0x10000A738, symSize: 0x34 }
  - { offsetInCU: 0x2867A, offset: 0x2867A, size: 0x8, addend: 0x0, symName: __ZNSt3__128__exception_guard_exceptionsINS_29_AllocatorDestroyRangeReverseINS_9allocatorIN8workflow11requirementEEEPS4_EEEC2B7v160006ES7_, symObjAddr: 0x91A4, symBinAddr: 0x10000A76C, symSize: 0x30 }
  - { offsetInCU: 0x286B3, offset: 0x286B3, size: 0x8, addend: 0x0, symName: __ZNSt3__129_AllocatorDestroyRangeReverseINS_9allocatorIN8workflow11requirementEEEPS3_EC2B7v160006ERS4_RS5_S8_, symObjAddr: 0x91D4, symBinAddr: 0x10000A79C, symSize: 0x38 }
  - { offsetInCU: 0x2870A, offset: 0x2870A, size: 0x8, addend: 0x0, symName: __ZNSt3__128__exception_guard_exceptionsINS_29_AllocatorDestroyRangeReverseINS_9allocatorIN8workflow11requirementEEEPS4_EEED2B7v160006Ev, symObjAddr: 0x9238, symBinAddr: 0x10000A800, symSize: 0x50 }
  - { offsetInCU: 0x28734, offset: 0x28734, size: 0x8, addend: 0x0, symName: __ZNKSt3__129_AllocatorDestroyRangeReverseINS_9allocatorIN8workflow11requirementEEEPS3_EclB7v160006Ev, symObjAddr: 0x9288, symBinAddr: 0x10000A850, symSize: 0x68 }
  - { offsetInCU: 0x28760, offset: 0x28760, size: 0x8, addend: 0x0, symName: __ZNSt3__119__to_address_helperINS_16reverse_iteratorIPN8workflow11requirementEEEvE6__callB7v160006ERKS5_, symObjAddr: 0x9384, symBinAddr: 0x10000A94C, symSize: 0x38 }
  - { offsetInCU: 0x28783, offset: 0x28783, size: 0x8, addend: 0x0, symName: __ZNKSt3__116reverse_iteratorIPN8workflow11requirementEEptB7v160006Ev, symObjAddr: 0x93BC, symBinAddr: 0x10000A984, symSize: 0x2C }
  - { offsetInCU: 0x287A9, offset: 0x287A9, size: 0x8, addend: 0x0, symName: __ZNSt3__128__exception_guard_exceptionsINS_6vectorIN8workflow11requirementENS_9allocatorIS3_EEE16__destroy_vectorEED2B7v160006Ev, symObjAddr: 0x94C4, symBinAddr: 0x10000AA8C, symSize: 0x50 }
  - { offsetInCU: 0x287D3, offset: 0x287D3, size: 0x8, addend: 0x0, symName: __ZN8workflowC2ENSt3__16vectorINS_11requirementENS0_9allocatorIS2_EEEENS0_12basic_stringIcNS0_11char_traitsIcEENS3_IcEEEE, symObjAddr: 0x9514, symBinAddr: 0x10000AADC, symSize: 0x74 }
  - { offsetInCU: 0x2881B, offset: 0x2881B, size: 0x8, addend: 0x0, symName: __ZNSt3__112__hash_tableINS_17__hash_value_typeIm8workflowEENS_22__unordered_map_hasherImS3_NS_4hashImEENS_8equal_toImEELb1EEENS_21__unordered_map_equalImS3_S8_S6_Lb1EEENS_9allocatorIS3_EEE25__emplace_unique_key_argsImJRKNS_21piecewise_construct_tENS_5tupleIJOmEEENSJ_IJEEEEEENS_4pairINS_15__hash_iteratorIPNS_11__hash_nodeIS3_PvEEEEbEERKT_DpOT0_, symObjAddr: 0x9588, symBinAddr: 0x10000AB50, symSize: 0x4B4 }
  - { offsetInCU: 0x28925, offset: 0x28925, size: 0x8, addend: 0x0, symName: __ZNKSt3__115__hash_iteratorIPNS_11__hash_nodeINS_17__hash_value_typeIm8workflowEEPvEEEptB7v160006Ev, symObjAddr: 0x9A68, symBinAddr: 0x10000B030, symSize: 0x30 }
  - { offsetInCU: 0x2894B, offset: 0x2894B, size: 0x8, addend: 0x0, symName: __ZNSt3__112__hash_tableINS_17__hash_value_typeIm8workflowEENS_22__unordered_map_hasherImS3_NS_4hashImEENS_8equal_toImEELb1EEENS_21__unordered_map_equalImS3_S8_S6_Lb1EEENS_9allocatorIS3_EEE13hash_functionB7v160006Ev, symObjAddr: 0x9A98, symBinAddr: 0x10000B060, symSize: 0x28 }
  - { offsetInCU: 0x28971, offset: 0x28971, size: 0x8, addend: 0x0, symName: __ZNKSt3__122__unordered_map_hasherImNS_17__hash_value_typeIm8workflowEENS_4hashImEENS_8equal_toImEELb1EEclB7v160006ERKm, symObjAddr: 0x9AC0, symBinAddr: 0x10000B088, symSize: 0x30 }
  - { offsetInCU: 0x289A6, offset: 0x289A6, size: 0x8, addend: 0x0, symName: __ZNKSt3__112__hash_tableINS_17__hash_value_typeIm8workflowEENS_22__unordered_map_hasherImS3_NS_4hashImEENS_8equal_toImEELb1EEENS_21__unordered_map_equalImS3_S8_S6_Lb1EEENS_9allocatorIS3_EEE12bucket_countB7v160006Ev, symObjAddr: 0x9AF0, symBinAddr: 0x10000B0B8, symSize: 0x28 }
  - { offsetInCU: 0x289CC, offset: 0x289CC, size: 0x8, addend: 0x0, symName: __ZNKSt3__110unique_ptrIA_PNS_16__hash_node_baseIPNS_11__hash_nodeINS_17__hash_value_typeIm8workflowEEPvEEEENS_25__bucket_list_deallocatorINS_9allocatorISA_EEEEEixB7v160006Em, symObjAddr: 0x9B18, symBinAddr: 0x10000B0E0, symSize: 0x34 }
  - { offsetInCU: 0x28A01, offset: 0x28A01, size: 0x8, addend: 0x0, symName: __ZNKSt3__116__hash_node_baseIPNS_11__hash_nodeINS_17__hash_value_typeIm8workflowEEPvEEE6__hashB7v160006Ev, symObjAddr: 0x9B4C, symBinAddr: 0x10000B114, symSize: 0x18 }
  - { offsetInCU: 0x28A27, offset: 0x28A27, size: 0x8, addend: 0x0, symName: __ZNSt3__112__hash_tableINS_17__hash_value_typeIm8workflowEENS_22__unordered_map_hasherImS3_NS_4hashImEENS_8equal_toImEELb1EEENS_21__unordered_map_equalImS3_S8_S6_Lb1EEENS_9allocatorIS3_EEE6key_eqB7v160006Ev, symObjAddr: 0x9B64, symBinAddr: 0x10000B12C, symSize: 0x28 }
  - { offsetInCU: 0x28A4D, offset: 0x28A4D, size: 0x8, addend: 0x0, symName: __ZNKSt3__121__unordered_map_equalImNS_17__hash_value_typeIm8workflowEENS_8equal_toImEENS_4hashImEELb1EEclB7v160006ERKS3_RKm, symObjAddr: 0x9B8C, symBinAddr: 0x10000B154, symSize: 0x48 }
  - { offsetInCU: 0x28A91, offset: 0x28A91, size: 0x8, addend: 0x0, symName: __ZNSt3__112__hash_tableINS_17__hash_value_typeIm8workflowEENS_22__unordered_map_hasherImS3_NS_4hashImEENS_8equal_toImEELb1EEENS_21__unordered_map_equalImS3_S8_S6_Lb1EEENS_9allocatorIS3_EEE21__construct_node_hashIRKNS_21piecewise_construct_tEJNS_5tupleIJOmEEENSJ_IJEEEEEENS_10unique_ptrINS_11__hash_nodeIS3_PvEENS_22__hash_node_destructorINSC_ISQ_EEEEEEmOT_DpOT0_, symObjAddr: 0x9BD4, symBinAddr: 0x10000B19C, symSize: 0x150 }
  - { offsetInCU: 0x28B2D, offset: 0x28B2D, size: 0x8, addend: 0x0, symName: __ZNSt3__112__hash_tableINS_17__hash_value_typeIm8workflowEENS_22__unordered_map_hasherImS3_NS_4hashImEENS_8equal_toImEELb1EEENS_21__unordered_map_equalImS3_S8_S6_Lb1EEENS_9allocatorIS3_EEE4sizeB7v160006Ev, symObjAddr: 0x9D24, symBinAddr: 0x10000B2EC, symSize: 0x28 }
  - { offsetInCU: 0x28B53, offset: 0x28B53, size: 0x8, addend: 0x0, symName: __ZNSt3__112__hash_tableINS_17__hash_value_typeIm8workflowEENS_22__unordered_map_hasherImS3_NS_4hashImEENS_8equal_toImEELb1EEENS_21__unordered_map_equalImS3_S8_S6_Lb1EEENS_9allocatorIS3_EEE15max_load_factorB7v160006Ev, symObjAddr: 0x9D4C, symBinAddr: 0x10000B314, symSize: 0x28 }
  - { offsetInCU: 0x28B79, offset: 0x28B79, size: 0x8, addend: 0x0, symName: __ZNSt3__112__hash_tableINS_17__hash_value_typeIm8workflowEENS_22__unordered_map_hasherImS3_NS_4hashImEENS_8equal_toImEELb1EEENS_21__unordered_map_equalImS3_S8_S6_Lb1EEENS_9allocatorIS3_EEE15__rehash_uniqueB7v160006Em, symObjAddr: 0x9D74, symBinAddr: 0x10000B33C, symSize: 0x2C }
  - { offsetInCU: 0x28BAE, offset: 0x28BAE, size: 0x8, addend: 0x0, symName: __ZNSt3__116__hash_node_baseIPNS_11__hash_nodeINS_17__hash_value_typeIm8workflowEEPvEEE5__ptrB7v160006Ev, symObjAddr: 0x9DA0, symBinAddr: 0x10000B368, symSize: 0x24 }
  - { offsetInCU: 0x28BD4, offset: 0x28BD4, size: 0x8, addend: 0x0, symName: __ZNKSt3__110unique_ptrINS_11__hash_nodeINS_17__hash_value_typeIm8workflowEEPvEENS_22__hash_node_destructorINS_9allocatorIS6_EEEEEptB7v160006Ev, symObjAddr: 0x9DC4, symBinAddr: 0x10000B38C, symSize: 0x28 }
  - { offsetInCU: 0x28BFA, offset: 0x28BFA, size: 0x8, addend: 0x0, symName: __ZNKSt3__110unique_ptrINS_11__hash_nodeINS_17__hash_value_typeIm8workflowEEPvEENS_22__hash_node_destructorINS_9allocatorIS6_EEEEE3getB7v160006Ev, symObjAddr: 0x9DEC, symBinAddr: 0x10000B3B4, symSize: 0x28 }
  - { offsetInCU: 0x28C20, offset: 0x28C20, size: 0x8, addend: 0x0, symName: __ZNSt3__110unique_ptrINS_11__hash_nodeINS_17__hash_value_typeIm8workflowEEPvEENS_22__hash_node_destructorINS_9allocatorIS6_EEEEE7releaseB7v160006Ev, symObjAddr: 0x9E14, symBinAddr: 0x10000B3DC, symSize: 0x44 }
  - { offsetInCU: 0x28C55, offset: 0x28C55, size: 0x8, addend: 0x0, symName: __ZNSt3__110unique_ptrINS_11__hash_nodeINS_17__hash_value_typeIm8workflowEEPvEENS_22__hash_node_destructorINS_9allocatorIS6_EEEEED1B7v160006Ev, symObjAddr: 0x9E58, symBinAddr: 0x10000B420, symSize: 0x2C }
  - { offsetInCU: 0x28C7F, offset: 0x28C7F, size: 0x8, addend: 0x0, symName: __ZNSt3__115__hash_iteratorIPNS_11__hash_nodeINS_17__hash_value_typeIm8workflowEEPvEEEC1B7v160006EPNS_16__hash_node_baseIS7_EEPKv, symObjAddr: 0x9E84, symBinAddr: 0x10000B44C, symSize: 0x3C }
  - { offsetInCU: 0x28CCD, offset: 0x28CCD, size: 0x8, addend: 0x0, symName: __ZNSt3__14pairINS_15__hash_iteratorIPNS_11__hash_nodeINS_17__hash_value_typeIm8workflowEEPvEEEEbEC1B7v160006IS9_RbLS6_0EEEOT_OT0_, symObjAddr: 0x9EC0, symBinAddr: 0x10000B488, symSize: 0x3C }
  - { offsetInCU: 0x28D2B, offset: 0x28D2B, size: 0x8, addend: 0x0, symName: __ZNSt3__117__compressed_pairImNS_22__unordered_map_hasherImNS_17__hash_value_typeIm8workflowEENS_4hashImEENS_8equal_toImEELb1EEEE6secondB7v160006Ev, symObjAddr: 0x9EFC, symBinAddr: 0x10000B4C4, symSize: 0x24 }
  - { offsetInCU: 0x28D51, offset: 0x28D51, size: 0x8, addend: 0x0, symName: __ZNSt3__122__compressed_pair_elemINS_22__unordered_map_hasherImNS_17__hash_value_typeIm8workflowEENS_4hashImEENS_8equal_toImEELb1EEELi1ELb1EE5__getB7v160006Ev, symObjAddr: 0x9F20, symBinAddr: 0x10000B4E8, symSize: 0x14 }
  - { offsetInCU: 0x28D77, offset: 0x28D77, size: 0x8, addend: 0x0, symName: __ZNKSt3__14hashImEclB7v160006Em, symObjAddr: 0x9F34, symBinAddr: 0x10000B4FC, symSize: 0x18 }
  - { offsetInCU: 0x28DAC, offset: 0x28DAC, size: 0x8, addend: 0x0, symName: __ZNKSt3__110unique_ptrIA_PNS_16__hash_node_baseIPNS_11__hash_nodeINS_17__hash_value_typeIm8workflowEEPvEEEENS_25__bucket_list_deallocatorINS_9allocatorISA_EEEEE11get_deleterB7v160006Ev, symObjAddr: 0x9F4C, symBinAddr: 0x10000B514, symSize: 0x24 }
  - { offsetInCU: 0x28DD2, offset: 0x28DD2, size: 0x8, addend: 0x0, symName: __ZNKSt3__125__bucket_list_deallocatorINS_9allocatorIPNS_16__hash_node_baseIPNS_11__hash_nodeINS_17__hash_value_typeIm8workflowEEPvEEEEEEE4sizeB7v160006Ev, symObjAddr: 0x9F70, symBinAddr: 0x10000B538, symSize: 0x28 }
  - { offsetInCU: 0x28DF8, offset: 0x28DF8, size: 0x8, addend: 0x0, symName: __ZNKSt3__117__compressed_pairIPPNS_16__hash_node_baseIPNS_11__hash_nodeINS_17__hash_value_typeIm8workflowEEPvEEEENS_25__bucket_list_deallocatorINS_9allocatorISA_EEEEE6secondB7v160006Ev, symObjAddr: 0x9F98, symBinAddr: 0x10000B560, symSize: 0x28 }
  - { offsetInCU: 0x28E1E, offset: 0x28E1E, size: 0x8, addend: 0x0, symName: __ZNKSt3__122__compressed_pair_elemINS_25__bucket_list_deallocatorINS_9allocatorIPNS_16__hash_node_baseIPNS_11__hash_nodeINS_17__hash_value_typeIm8workflowEEPvEEEEEEEELi1ELb0EE5__getB7v160006Ev, symObjAddr: 0x9FC0, symBinAddr: 0x10000B588, symSize: 0x14 }
  - { offsetInCU: 0x28E44, offset: 0x28E44, size: 0x8, addend: 0x0, symName: __ZNKSt3__117__compressed_pairImNS_9allocatorIPNS_16__hash_node_baseIPNS_11__hash_nodeINS_17__hash_value_typeIm8workflowEEPvEEEEEEE5firstB7v160006Ev, symObjAddr: 0x9FD4, symBinAddr: 0x10000B59C, symSize: 0x24 }
  - { offsetInCU: 0x28E6A, offset: 0x28E6A, size: 0x8, addend: 0x0, symName: __ZNKSt3__117__compressed_pairIPPNS_16__hash_node_baseIPNS_11__hash_nodeINS_17__hash_value_typeIm8workflowEEPvEEEENS_25__bucket_list_deallocatorINS_9allocatorISA_EEEEE5firstB7v160006Ev, symObjAddr: 0x9FF8, symBinAddr: 0x10000B5C0, symSize: 0x24 }
  - { offsetInCU: 0x28E90, offset: 0x28E90, size: 0x8, addend: 0x0, symName: __ZNKSt3__122__compressed_pair_elemIPPNS_16__hash_node_baseIPNS_11__hash_nodeINS_17__hash_value_typeIm8workflowEEPvEEEELi0ELb0EE5__getB7v160006Ev, symObjAddr: 0xA01C, symBinAddr: 0x10000B5E4, symSize: 0x14 }
  - { offsetInCU: 0x28EB6, offset: 0x28EB6, size: 0x8, addend: 0x0, symName: __ZNSt3__117__compressed_pairIfNS_21__unordered_map_equalImNS_17__hash_value_typeIm8workflowEENS_8equal_toImEENS_4hashImEELb1EEEE6secondB7v160006Ev, symObjAddr: 0xA030, symBinAddr: 0x10000B5F8, symSize: 0x24 }
  - { offsetInCU: 0x28EDC, offset: 0x28EDC, size: 0x8, addend: 0x0, symName: __ZNSt3__122__compressed_pair_elemINS_21__unordered_map_equalImNS_17__hash_value_typeIm8workflowEENS_8equal_toImEENS_4hashImEELb1EEELi1ELb1EE5__getB7v160006Ev, symObjAddr: 0xA054, symBinAddr: 0x10000B61C, symSize: 0x14 }
  - { offsetInCU: 0x28F02, offset: 0x28F02, size: 0x8, addend: 0x0, symName: __ZNKSt3__18equal_toImEclB7v160006ERKmS3_, symObjAddr: 0xA068, symBinAddr: 0x10000B630, symSize: 0x34 }
  - { offsetInCU: 0x28F46, offset: 0x28F46, size: 0x8, addend: 0x0, symName: __ZNKSt3__117__hash_value_typeIm8workflowE11__get_valueB7v160006Ev, symObjAddr: 0xA09C, symBinAddr: 0x10000B664, symSize: 0x24 }
  - { offsetInCU: 0x28F6C, offset: 0x28F6C, size: 0x8, addend: 0x0, symName: __ZNSt3__116allocator_traitsINS_9allocatorINS_11__hash_nodeINS_17__hash_value_typeIm8workflowEEPvEEEEE8allocateB7v160006ERS8_m, symObjAddr: 0xA0F8, symBinAddr: 0x10000B6C0, symSize: 0x2C }
  - { offsetInCU: 0x28F9F, offset: 0x28F9F, size: 0x8, addend: 0x0, symName: __ZNSt3__122__hash_node_destructorINS_9allocatorINS_11__hash_nodeINS_17__hash_value_typeIm8workflowEEPvEEEEEC1B7v160006ERS8_b, symObjAddr: 0xA124, symBinAddr: 0x10000B6EC, symSize: 0x48 }
  - { offsetInCU: 0x28FED, offset: 0x28FED, size: 0x8, addend: 0x0, symName: __ZNSt3__110unique_ptrINS_11__hash_nodeINS_17__hash_value_typeIm8workflowEEPvEENS_22__hash_node_destructorINS_9allocatorIS6_EEEEEC1B7v160006ILb1EvEEPS6_NS_16__dependent_typeINS_27__unique_ptr_deleter_sfinaeISA_EEXT_EE20__good_rval_ref_typeE, symObjAddr: 0xA16C, symBinAddr: 0x10000B734, symSize: 0x3C }
  - { offsetInCU: 0x2903E, offset: 0x2903E, size: 0x8, addend: 0x0, symName: __ZNSt3__116allocator_traitsINS_9allocatorINS_11__hash_nodeINS_17__hash_value_typeIm8workflowEEPvEEEEE9constructB7v160006INS_4pairIKmS4_EEJRKNS_21piecewise_construct_tENS_5tupleIJOmEEENSH_IJEEEEvvEEvRS8_PT_DpOT0_, symObjAddr: 0xA1A8, symBinAddr: 0x10000B770, symSize: 0x40 }
  - { offsetInCU: 0x290BA, offset: 0x290BA, size: 0x8, addend: 0x0, symName: __ZNSt3__110unique_ptrINS_11__hash_nodeINS_17__hash_value_typeIm8workflowEEPvEENS_22__hash_node_destructorINS_9allocatorIS6_EEEEE11get_deleterB7v160006Ev, symObjAddr: 0xA1E8, symBinAddr: 0x10000B7B0, symSize: 0x24 }
  - { offsetInCU: 0x290E0, offset: 0x290E0, size: 0x8, addend: 0x0, symName: __ZNSt3__19allocatorINS_11__hash_nodeINS_17__hash_value_typeIm8workflowEEPvEEE8allocateB7v160006Em, symObjAddr: 0xA20C, symBinAddr: 0x10000B7D4, symSize: 0x5C }
  - { offsetInCU: 0x2911F, offset: 0x2911F, size: 0x8, addend: 0x0, symName: __ZNSt3__116allocator_traitsINS_9allocatorINS_11__hash_nodeINS_17__hash_value_typeIm8workflowEEPvEEEEE8max_sizeB7v160006IS8_vvEEmRKS8_, symObjAddr: 0xA268, symBinAddr: 0x10000B830, symSize: 0x28 }
  - { offsetInCU: 0x2914A, offset: 0x2914A, size: 0x8, addend: 0x0, symName: __ZNSt3__122__hash_node_destructorINS_9allocatorINS_11__hash_nodeINS_17__hash_value_typeIm8workflowEEPvEEEEEC2B7v160006ERS8_b, symObjAddr: 0xA290, symBinAddr: 0x10000B858, symSize: 0x38 }
  - { offsetInCU: 0x29192, offset: 0x29192, size: 0x8, addend: 0x0, symName: __ZNSt3__110unique_ptrINS_11__hash_nodeINS_17__hash_value_typeIm8workflowEEPvEENS_22__hash_node_destructorINS_9allocatorIS6_EEEEEC2B7v160006ILb1EvEEPS6_NS_16__dependent_typeINS_27__unique_ptr_deleter_sfinaeISA_EEXT_EE20__good_rval_ref_typeE, symObjAddr: 0xA2C8, symBinAddr: 0x10000B890, symSize: 0x48 }
  - { offsetInCU: 0x291E3, offset: 0x291E3, size: 0x8, addend: 0x0, symName: __ZNSt3__117__compressed_pairIPNS_11__hash_nodeINS_17__hash_value_typeIm8workflowEEPvEENS_22__hash_node_destructorINS_9allocatorIS6_EEEEEC1B7v160006IRS7_SB_EEOT_OT0_, symObjAddr: 0xA310, symBinAddr: 0x10000B8D8, symSize: 0x3C }
  - { offsetInCU: 0x2923B, offset: 0x2923B, size: 0x8, addend: 0x0, symName: __ZNSt3__117__compressed_pairIPNS_11__hash_nodeINS_17__hash_value_typeIm8workflowEEPvEENS_22__hash_node_destructorINS_9allocatorIS6_EEEEEC2B7v160006IRS7_SB_EEOT_OT0_, symObjAddr: 0xA34C, symBinAddr: 0x10000B914, symSize: 0x48 }
  - { offsetInCU: 0x29293, offset: 0x29293, size: 0x8, addend: 0x0, symName: __ZNSt3__122__compressed_pair_elemIPNS_11__hash_nodeINS_17__hash_value_typeIm8workflowEEPvEELi0ELb0EEC2B7v160006IRS7_vEEOT_, symObjAddr: 0xA394, symBinAddr: 0x10000B95C, symSize: 0x24 }
  - { offsetInCU: 0x292D5, offset: 0x292D5, size: 0x8, addend: 0x0, symName: __ZNSt3__122__compressed_pair_elemINS_22__hash_node_destructorINS_9allocatorINS_11__hash_nodeINS_17__hash_value_typeIm8workflowEEPvEEEEEELi1ELb0EEC2B7v160006ISA_vEEOT_, symObjAddr: 0xA3B8, symBinAddr: 0x10000B980, symSize: 0x24 }
  - { offsetInCU: 0x29317, offset: 0x29317, size: 0x8, addend: 0x0, symName: __ZNSt3__14pairIKm8workflowEC1B7v160006IJOmEJEEENS_21piecewise_construct_tENS_5tupleIJDpT_EEENS7_IJDpT0_EEE, symObjAddr: 0xA42C, symBinAddr: 0x10000B9F4, symSize: 0x3C }
  - { offsetInCU: 0x2937E, offset: 0x2937E, size: 0x8, addend: 0x0, symName: __ZNSt3__14pairIKm8workflowEC1B7v160006IJOmEJEJLm0EEJEEENS_21piecewise_construct_tERNS_5tupleIJDpT_EEERNS7_IJDpT0_EEENS_15__tuple_indicesIJXspT1_EEEENSG_IJXspT2_EEEE, symObjAddr: 0xA468, symBinAddr: 0x10000BA30, symSize: 0x3C }
  - { offsetInCU: 0x2940B, offset: 0x2940B, size: 0x8, addend: 0x0, symName: __ZNSt3__14pairIKm8workflowEC2B7v160006IJOmEJEJLm0EEJEEENS_21piecewise_construct_tERNS_5tupleIJDpT_EEERNS7_IJDpT0_EEENS_15__tuple_indicesIJXspT1_EEEENSG_IJXspT2_EEEE, symObjAddr: 0xA4A4, symBinAddr: 0x10000BA6C, symSize: 0x4C }
  - { offsetInCU: 0x29498, offset: 0x29498, size: 0x8, addend: 0x0, symName: __ZN8workflowC1Ev, symObjAddr: 0xA514, symBinAddr: 0x10000BADC, symSize: 0x2C }
  - { offsetInCU: 0x294C2, offset: 0x294C2, size: 0x8, addend: 0x0, symName: __ZNSt3__112__tuple_leafILm0EOmLb0EE3getB7v160006Ev, symObjAddr: 0xA540, symBinAddr: 0x10000BB08, symSize: 0x18 }
  - { offsetInCU: 0x294E8, offset: 0x294E8, size: 0x8, addend: 0x0, symName: __ZN8workflowC2Ev, symObjAddr: 0xA558, symBinAddr: 0x10000BB20, symSize: 0x9C }
  - { offsetInCU: 0x29512, offset: 0x29512, size: 0x8, addend: 0x0, symName: __ZNSt16initializer_listIN8workflow11requirementEEC1B7v160006Ev, symObjAddr: 0xA5F4, symBinAddr: 0x10000BBBC, symSize: 0x2C }
  - { offsetInCU: 0x2953C, offset: 0x2953C, size: 0x8, addend: 0x0, symName: __ZNSt3__16vectorIN8workflow11requirementENS_9allocatorIS2_EEEaSB7v160006ESt16initializer_listIS2_E, symObjAddr: 0xA620, symBinAddr: 0x10000BBE8, symSize: 0x60 }
  - { offsetInCU: 0x29571, offset: 0x29571, size: 0x8, addend: 0x0, symName: __ZNSt3__112basic_stringIcNS_11char_traitsIcEENS_9allocatorIcEEEaSB7v160006EPKc, symObjAddr: 0xA680, symBinAddr: 0x10000BC48, symSize: 0x2C }
  - { offsetInCU: 0x295A6, offset: 0x295A6, size: 0x8, addend: 0x0, symName: __ZNSt16initializer_listIN8workflow11requirementEEC2B7v160006Ev, symObjAddr: 0xA6AC, symBinAddr: 0x10000BC74, symSize: 0x1C }
  - { offsetInCU: 0x295D0, offset: 0x295D0, size: 0x8, addend: 0x0, symName: __ZNSt3__16vectorIN8workflow11requirementENS_9allocatorIS2_EEE6assignIPKS2_Li0EEEvT_S9_, symObjAddr: 0xA6C8, symBinAddr: 0x10000BC90, symSize: 0x17C }
  - { offsetInCU: 0x2966F, offset: 0x2966F, size: 0x8, addend: 0x0, symName: __ZNKSt16initializer_listIN8workflow11requirementEE5beginB7v160006Ev, symObjAddr: 0xA844, symBinAddr: 0x10000BE0C, symSize: 0x18 }
  - { offsetInCU: 0x29695, offset: 0x29695, size: 0x8, addend: 0x0, symName: __ZNKSt16initializer_listIN8workflow11requirementEE3endB7v160006Ev, symObjAddr: 0xA85C, symBinAddr: 0x10000BE24, symSize: 0x20 }
  - { offsetInCU: 0x296BB, offset: 0x296BB, size: 0x8, addend: 0x0, symName: __ZNSt3__16vectorIN8workflow11requirementENS_9allocatorIS2_EEE18__construct_at_endIPKS2_Li0EEEvT_S9_m, symObjAddr: 0xA938, symBinAddr: 0x10000BF00, symSize: 0x8C }
  - { offsetInCU: 0x2972E, offset: 0x2972E, size: 0x8, addend: 0x0, symName: __ZNSt3__16vectorIN8workflow11requirementENS_9allocatorIS2_EEE17__destruct_at_endB7v160006EPS2_, symObjAddr: 0xA9C4, symBinAddr: 0x10000BF8C, symSize: 0x60 }
  - { offsetInCU: 0x29772, offset: 0x29772, size: 0x8, addend: 0x0, symName: __ZNSt3__16vectorIN8workflow11requirementENS_9allocatorIS2_EEE13__vdeallocateEv, symObjAddr: 0xAA24, symBinAddr: 0x10000BFEC, symSize: 0x8C }
  - { offsetInCU: 0x297C2, offset: 0x297C2, size: 0x8, addend: 0x0, symName: __ZNKSt3__114__copy_trivialclB7v160006IKN8workflow11requirementES3_Li0EEENS_4pairIPT_PT0_EES7_S7_S9_, symObjAddr: 0xAC8C, symBinAddr: 0x10000C254, symSize: 0x48 }
  - { offsetInCU: 0x29847, offset: 0x29847, size: 0x8, addend: 0x0, symName: __ZNSt3__119__unwrap_range_implIPKN8workflow11requirementES4_E8__unwrapB7v160006ES4_S4_, symObjAddr: 0xAD98, symBinAddr: 0x10000C360, symSize: 0x58 }
  - { offsetInCU: 0x2987E, offset: 0x2987E, size: 0x8, addend: 0x0, symName: __ZNSt3__14pairIPKN8workflow11requirementES4_EC1B7v160006IS4_S4_LPv0EEEOT_OT0_, symObjAddr: 0xAE14, symBinAddr: 0x10000C3DC, symSize: 0x3C }
  - { offsetInCU: 0x298DC, offset: 0x298DC, size: 0x8, addend: 0x0, symName: __ZNSt3__118__unwrap_iter_implIPKN8workflow11requirementELb1EE8__unwrapB7v160006ES4_, symObjAddr: 0xAE50, symBinAddr: 0x10000C418, symSize: 0x24 }
  - { offsetInCU: 0x298FF, offset: 0x298FF, size: 0x8, addend: 0x0, symName: __ZNSt3__14pairIPKN8workflow11requirementES4_EC2B7v160006IS4_S4_LPv0EEEOT_OT0_, symObjAddr: 0xAE88, symBinAddr: 0x10000C450, symSize: 0x34 }
  - { offsetInCU: 0x29969, offset: 0x29969, size: 0x8, addend: 0x0, symName: __ZNSt3__14pairIPKN8workflow11requirementEPS2_EC1B7v160006IRS4_S5_LPv0EEEOT_OT0_, symObjAddr: 0xAF78, symBinAddr: 0x10000C540, symSize: 0x3C }
  - { offsetInCU: 0x299C7, offset: 0x299C7, size: 0x8, addend: 0x0, symName: __ZNSt3__14pairIPKN8workflow11requirementEPS2_EC2B7v160006IRS4_S5_LPv0EEEOT_OT0_, symObjAddr: 0xAFB4, symBinAddr: 0x10000C57C, symSize: 0x34 }
  - { offsetInCU: 0x29A25, offset: 0x29A25, size: 0x8, addend: 0x0, symName: __ZNSt3__118__unwrap_iter_implIPN8workflow11requirementELb1EE8__unwrapB7v160006ES3_, symObjAddr: 0xAFE8, symBinAddr: 0x10000C5B0, symSize: 0x24 }
  - { offsetInCU: 0x29A48, offset: 0x29A48, size: 0x8, addend: 0x0, symName: __ZNSt3__14pairIPKN8workflow11requirementEPS2_EC1B7v160006IS4_S5_LPv0EEEOT_OT0_, symObjAddr: 0xB00C, symBinAddr: 0x10000C5D4, symSize: 0x3C }
  - { offsetInCU: 0x29AA6, offset: 0x29AA6, size: 0x8, addend: 0x0, symName: __ZNSt3__14pairIPKN8workflow11requirementEPS2_EC2B7v160006IS4_S5_LPv0EEEOT_OT0_, symObjAddr: 0xB048, symBinAddr: 0x10000C610, symSize: 0x34 }
  - { offsetInCU: 0x29B04, offset: 0x29B04, size: 0x8, addend: 0x0, symName: __ZNSt3__119__unwrap_range_implIPKN8workflow11requirementES4_E8__rewrapB7v160006ES4_S4_, symObjAddr: 0xB07C, symBinAddr: 0x10000C644, symSize: 0x2C }
  - { offsetInCU: 0x29B35, offset: 0x29B35, size: 0x8, addend: 0x0, symName: __ZNSt3__118__unwrap_iter_implIPKN8workflow11requirementELb1EE8__rewrapB7v160006ES4_S4_, symObjAddr: 0xB0E4, symBinAddr: 0x10000C6AC, symSize: 0x50 }
  - { offsetInCU: 0x29B66, offset: 0x29B66, size: 0x8, addend: 0x0, symName: __ZNSt3__118__unwrap_iter_implIPN8workflow11requirementELb1EE8__rewrapB7v160006ES3_S3_, symObjAddr: 0xB134, symBinAddr: 0x10000C6FC, symSize: 0x50 }
  - { offsetInCU: 0x29B97, offset: 0x29B97, size: 0x8, addend: 0x0, symName: __ZNSt3__16vectorIN8workflow11requirementENS_9allocatorIS2_EEE27__invalidate_iterators_pastB7v160006EPS2_, symObjAddr: 0xB1BC, symBinAddr: 0x10000C784, symSize: 0x14 }
  - { offsetInCU: 0x29BCE, offset: 0x29BCE, size: 0x8, addend: 0x0, symName: __ZNKSt3__16vectorIN8workflow11requirementENS_9allocatorIS2_EEE17__annotate_shrinkB7v160006Em, symObjAddr: 0xB1D0, symBinAddr: 0x10000C798, symSize: 0xB4 }
  - { offsetInCU: 0x29C03, offset: 0x29C03, size: 0x8, addend: 0x0, symName: __ZNSt3__16vectorIN8workflow11requirementENS_9allocatorIS2_EEE5clearB7v160006Ev, symObjAddr: 0xB284, symBinAddr: 0x10000C84C, symSize: 0x4C }
  - { offsetInCU: 0x29C38, offset: 0x29C38, size: 0x8, addend: 0x0, symName: __ZNSt3__117__compressed_pairIPNS_11__hash_nodeINS_17__hash_value_typeIm8workflowEEPvEENS_22__hash_node_destructorINS_9allocatorIS6_EEEEE6secondB7v160006Ev, symObjAddr: 0xB2D0, symBinAddr: 0x10000C898, symSize: 0x28 }
  - { offsetInCU: 0x29C5E, offset: 0x29C5E, size: 0x8, addend: 0x0, symName: __ZNSt3__122__compressed_pair_elemINS_22__hash_node_destructorINS_9allocatorINS_11__hash_nodeINS_17__hash_value_typeIm8workflowEEPvEEEEEELi1ELb0EE5__getB7v160006Ev, symObjAddr: 0xB2F8, symBinAddr: 0x10000C8C0, symSize: 0x14 }
  - { offsetInCU: 0x29C84, offset: 0x29C84, size: 0x8, addend: 0x0, symName: __ZNSt3__117__compressed_pairImNS_22__unordered_map_hasherImNS_17__hash_value_typeIm8workflowEENS_4hashImEENS_8equal_toImEELb1EEEE5firstB7v160006Ev, symObjAddr: 0xB30C, symBinAddr: 0x10000C8D4, symSize: 0x24 }
  - { offsetInCU: 0x29CAA, offset: 0x29CAA, size: 0x8, addend: 0x0, symName: __ZNSt3__117__compressed_pairIfNS_21__unordered_map_equalImNS_17__hash_value_typeIm8workflowEENS_8equal_toImEENS_4hashImEELb1EEEE5firstB7v160006Ev, symObjAddr: 0xB330, symBinAddr: 0x10000C8F8, symSize: 0x24 }
  - { offsetInCU: 0x29CD0, offset: 0x29CD0, size: 0x8, addend: 0x0, symName: __ZNSt3__112__hash_tableINS_17__hash_value_typeIm8workflowEENS_22__unordered_map_hasherImS3_NS_4hashImEENS_8equal_toImEELb1EEENS_21__unordered_map_equalImS3_S8_S6_Lb1EEENS_9allocatorIS3_EEE8__rehashILb1EEEvm, symObjAddr: 0xB354, symBinAddr: 0x10000C91C, symSize: 0x1A8 }
  - { offsetInCU: 0x29D20, offset: 0x29D20, size: 0x8, addend: 0x0, symName: __ZNSt3__112__hash_tableINS_17__hash_value_typeIm8workflowEENS_22__unordered_map_hasherImS3_NS_4hashImEENS_8equal_toImEELb1EEENS_21__unordered_map_equalImS3_S8_S6_Lb1EEENS_9allocatorIS3_EEE11__do_rehashILb1EEEvm, symObjAddr: 0xB4FC, symBinAddr: 0x10000CAC4, symSize: 0x290 }
  - { offsetInCU: 0x29E03, offset: 0x29E03, size: 0x8, addend: 0x0, symName: __ZNSt3__110unique_ptrIA_PNS_16__hash_node_baseIPNS_11__hash_nodeINS_17__hash_value_typeIm8workflowEEPvEEEENS_25__bucket_list_deallocatorINS_9allocatorISA_EEEEE11get_deleterB7v160006Ev, symObjAddr: 0xB79C, symBinAddr: 0x10000CD64, symSize: 0x24 }
  - { offsetInCU: 0x29E29, offset: 0x29E29, size: 0x8, addend: 0x0, symName: __ZNSt3__110unique_ptrIA_PNS_16__hash_node_baseIPNS_11__hash_nodeINS_17__hash_value_typeIm8workflowEEPvEEEENS_25__bucket_list_deallocatorINS_9allocatorISA_EEEEE5resetB7v160006IPSA_EENS_9enable_ifIXsr28_CheckArrayPointerConversionIT_EE5valueEvE4typeESK_, symObjAddr: 0xB7C0, symBinAddr: 0x10000CD88, symSize: 0x78 }
  - { offsetInCU: 0x29E76, offset: 0x29E76, size: 0x8, addend: 0x0, symName: __ZNSt3__116allocator_traitsINS_9allocatorIPNS_16__hash_node_baseIPNS_11__hash_nodeINS_17__hash_value_typeIm8workflowEEPvEEEEEEE8allocateB7v160006ERSC_m, symObjAddr: 0xB838, symBinAddr: 0x10000CE00, symSize: 0x2C }
  - { offsetInCU: 0x29EA9, offset: 0x29EA9, size: 0x8, addend: 0x0, symName: __ZNSt3__19allocatorIPNS_16__hash_node_baseIPNS_11__hash_nodeINS_17__hash_value_typeIm8workflowEEPvEEEEE8allocateB7v160006Em, symObjAddr: 0xB864, symBinAddr: 0x10000CE2C, symSize: 0x58 }
  - { offsetInCU: 0x29EE8, offset: 0x29EE8, size: 0x8, addend: 0x0, symName: __ZNSt3__116allocator_traitsINS_9allocatorIPNS_16__hash_node_baseIPNS_11__hash_nodeINS_17__hash_value_typeIm8workflowEEPvEEEEEEE8max_sizeB7v160006ISC_vvEEmRKSC_, symObjAddr: 0xB8BC, symBinAddr: 0x10000CE84, symSize: 0x28 }
  - { offsetInCU: 0x29F13, offset: 0x29F13, size: 0x8, addend: 0x0, symName: __ZNKSt3__117__compressed_pairIPNS_11__hash_nodeINS_17__hash_value_typeIm8workflowEEPvEENS_22__hash_node_destructorINS_9allocatorIS6_EEEEE5firstB7v160006Ev, symObjAddr: 0xB8E4, symBinAddr: 0x10000CEAC, symSize: 0x24 }
  - { offsetInCU: 0x29F39, offset: 0x29F39, size: 0x8, addend: 0x0, symName: __ZNKSt3__122__compressed_pair_elemIPNS_11__hash_nodeINS_17__hash_value_typeIm8workflowEEPvEELi0ELb0EE5__getB7v160006Ev, symObjAddr: 0xB908, symBinAddr: 0x10000CED0, symSize: 0x14 }
  - { offsetInCU: 0x29F5F, offset: 0x29F5F, size: 0x8, addend: 0x0, symName: __ZNSt3__117__compressed_pairIPNS_11__hash_nodeINS_17__hash_value_typeIm8workflowEEPvEENS_22__hash_node_destructorINS_9allocatorIS6_EEEEE5firstB7v160006Ev, symObjAddr: 0xB91C, symBinAddr: 0x10000CEE4, symSize: 0x24 }
  - { offsetInCU: 0x29F85, offset: 0x29F85, size: 0x8, addend: 0x0, symName: __ZNSt3__122__compressed_pair_elemIPNS_11__hash_nodeINS_17__hash_value_typeIm8workflowEEPvEELi0ELb0EE5__getB7v160006Ev, symObjAddr: 0xB940, symBinAddr: 0x10000CF08, symSize: 0x14 }
  - { offsetInCU: 0x29FAB, offset: 0x29FAB, size: 0x8, addend: 0x0, symName: __ZNSt3__110unique_ptrINS_11__hash_nodeINS_17__hash_value_typeIm8workflowEEPvEENS_22__hash_node_destructorINS_9allocatorIS6_EEEEED2B7v160006Ev, symObjAddr: 0xB954, symBinAddr: 0x10000CF1C, symSize: 0x30 }
  - { offsetInCU: 0x29FD5, offset: 0x29FD5, size: 0x8, addend: 0x0, symName: __ZNSt3__110unique_ptrINS_11__hash_nodeINS_17__hash_value_typeIm8workflowEEPvEENS_22__hash_node_destructorINS_9allocatorIS6_EEEEE5resetB7v160006EPS6_, symObjAddr: 0xB984, symBinAddr: 0x10000CF4C, symSize: 0x78 }
  - { offsetInCU: 0x2A019, offset: 0x2A019, size: 0x8, addend: 0x0, symName: __ZNSt3__122__hash_node_destructorINS_9allocatorINS_11__hash_nodeINS_17__hash_value_typeIm8workflowEEPvEEEEEclB7v160006EPS7_, symObjAddr: 0xB9FC, symBinAddr: 0x10000CFC4, symSize: 0x98 }
  - { offsetInCU: 0x2A04E, offset: 0x2A04E, size: 0x8, addend: 0x0, symName: __ZNSt3__115__hash_iteratorIPNS_11__hash_nodeINS_17__hash_value_typeIm8workflowEEPvEEEC2B7v160006EPNS_16__hash_node_baseIS7_EEPKv, symObjAddr: 0xBA94, symBinAddr: 0x10000D05C, symSize: 0x24 }
  - { offsetInCU: 0x2A096, offset: 0x2A096, size: 0x8, addend: 0x0, symName: __ZNSt3__14pairINS_15__hash_iteratorIPNS_11__hash_nodeINS_17__hash_value_typeIm8workflowEEPvEEEEbEC2B7v160006IS9_RbLS6_0EEEOT_OT0_, symObjAddr: 0xBAB8, symBinAddr: 0x10000D080, symSize: 0x38 }
  - { offsetInCU: 0x2A0F4, offset: 0x2A0F4, size: 0x8, addend: 0x0, symName: __ZNSt3__15tupleIJOmEEC1B7v160006IJmELi0EEEDpOT_, symObjAddr: 0xBAF0, symBinAddr: 0x10000D0B8, symSize: 0x34 }
  - { offsetInCU: 0x2A13E, offset: 0x2A13E, size: 0x8, addend: 0x0, symName: __ZNSt3__15tupleIJOmEEC2B7v160006IJmELi0EEEDpOT_, symObjAddr: 0xBB24, symBinAddr: 0x10000D0EC, symSize: 0x34 }
  - { offsetInCU: 0x2A188, offset: 0x2A188, size: 0x8, addend: 0x0, symName: __ZNSt3__112__tuple_implINS_15__tuple_indicesIJLm0EEEEJOmEEC1B7v160006IJLm0EEJS3_EJEJEJmEEENS1_IJXspT_EEEENS_13__tuple_typesIJDpT0_EEENS1_IJXspT1_EEEENS7_IJDpT2_EEEDpOT3_, symObjAddr: 0xBB58, symBinAddr: 0x10000D120, symSize: 0x34 }
  - { offsetInCU: 0x2A219, offset: 0x2A219, size: 0x8, addend: 0x0, symName: __ZNSt3__112__tuple_implINS_15__tuple_indicesIJLm0EEEEJOmEEC2B7v160006IJLm0EEJS3_EJEJEJmEEENS1_IJXspT_EEEENS_13__tuple_typesIJDpT0_EEENS1_IJXspT1_EEEENS7_IJDpT2_EEEDpOT3_, symObjAddr: 0xBB8C, symBinAddr: 0x10000D154, symSize: 0x34 }
  - { offsetInCU: 0x2A2AA, offset: 0x2A2AA, size: 0x8, addend: 0x0, symName: __ZNSt3__112__tuple_leafILm0EOmLb0EEC2B7v160006ImvEEOT_, symObjAddr: 0xBBC0, symBinAddr: 0x10000D188, symSize: 0x20 }
  - { offsetInCU: 0x2A2ED, offset: 0x2A2ED, size: 0x8, addend: 0x0, symName: __ZNSt3__114pointer_traitsIPNS_17__hash_value_typeIm8workflowEEE10pointer_toB7v160006ERS3_, symObjAddr: 0xBBE0, symBinAddr: 0x10000D1A8, symSize: 0x14 }
  - { offsetInCU: 0x2A310, offset: 0x2A310, size: 0x8, addend: 0x0, symName: __ZNSt3__113unordered_mapINS_12basic_stringIcNS_11char_traitsIcEENS_9allocatorIcEEEEmNS_4hashIS6_EENS_8equal_toIS6_EENS4_INS_4pairIKS6_mEEEEEixERSC_, symObjAddr: 0xBBF4, symBinAddr: 0x10000D1BC, symSize: 0x80 }
  - { offsetInCU: 0x2A347, offset: 0x2A347, size: 0x8, addend: 0x0, symName: __ZNSt3__112__hash_tableINS_17__hash_value_typeINS_12basic_stringIcNS_11char_traitsIcEENS_9allocatorIcEEEEmEENS_22__unordered_map_hasherIS7_S8_NS_4hashIS7_EENS_8equal_toIS7_EELb1EEENS_21__unordered_map_equalIS7_S8_SD_SB_Lb1EEENS5_IS8_EEE25__emplace_unique_key_argsIS7_JRKNS_21piecewise_construct_tENS_5tupleIJRKS7_EEENSN_IJEEEEEENS_4pairINS_15__hash_iteratorIPNS_11__hash_nodeIS8_PvEEEEbEERKT_DpOT0_, symObjAddr: 0xBC74, symBinAddr: 0x10000D23C, symSize: 0x498 }
  - { offsetInCU: 0x2A451, offset: 0x2A451, size: 0x8, addend: 0x0, symName: __ZNSt3__112__hash_tableINS_17__hash_value_typeINS_12basic_stringIcNS_11char_traitsIcEENS_9allocatorIcEEEEmEENS_22__unordered_map_hasherIS7_S8_NS_4hashIS7_EENS_8equal_toIS7_EELb1EEENS_21__unordered_map_equalIS7_S8_SD_SB_Lb1EEENS5_IS8_EEE21__construct_node_hashIRKNS_21piecewise_construct_tEJNS_5tupleIJRKS7_EEENSN_IJEEEEEENS_10unique_ptrINS_11__hash_nodeIS8_PvEENS_22__hash_node_destructorINS5_ISV_EEEEEEmOT_DpOT0_, symObjAddr: 0xC138, symBinAddr: 0x10000D700, symSize: 0x150 }
  - { offsetInCU: 0x2A4ED, offset: 0x2A4ED, size: 0x8, addend: 0x0, symName: __ZNSt3__116allocator_traitsINS_9allocatorINS_11__hash_nodeINS_17__hash_value_typeINS_12basic_stringIcNS_11char_traitsIcEENS1_IcEEEEmEEPvEEEEE9constructB7v160006INS_4pairIKS8_mEEJRKNS_21piecewise_construct_tENS_5tupleIJRSG_EEENSL_IJEEEEvvEEvRSC_PT_DpOT0_, symObjAddr: 0xC288, symBinAddr: 0x10000D850, symSize: 0x40 }
  - { offsetInCU: 0x2A569, offset: 0x2A569, size: 0x8, addend: 0x0, symName: __ZNSt3__14pairIKNS_12basic_stringIcNS_11char_traitsIcEENS_9allocatorIcEEEEmEC1B7v160006IJRS7_EJEEENS_21piecewise_construct_tENS_5tupleIJDpT_EEENSC_IJDpT0_EEE, symObjAddr: 0xC318, symBinAddr: 0x10000D8E0, symSize: 0x3C }
  - { offsetInCU: 0x2A5D0, offset: 0x2A5D0, size: 0x8, addend: 0x0, symName: __ZNSt3__14pairIKNS_12basic_stringIcNS_11char_traitsIcEENS_9allocatorIcEEEEmEC1B7v160006IJRS7_EJEJLm0EEJEEENS_21piecewise_construct_tERNS_5tupleIJDpT_EEERNSC_IJDpT0_EEENS_15__tuple_indicesIJXspT1_EEEENSL_IJXspT2_EEEE, symObjAddr: 0xC354, symBinAddr: 0x10000D91C, symSize: 0x3C }
  - { offsetInCU: 0x2A65D, offset: 0x2A65D, size: 0x8, addend: 0x0, symName: __ZNSt3__14pairIKNS_12basic_stringIcNS_11char_traitsIcEENS_9allocatorIcEEEEmEC2B7v160006IJRS7_EJEJLm0EEJEEENS_21piecewise_construct_tERNS_5tupleIJDpT_EEERNSC_IJDpT0_EEENS_15__tuple_indicesIJXspT1_EEEENSL_IJXspT2_EEEE, symObjAddr: 0xC390, symBinAddr: 0x10000D958, symSize: 0x48 }
  - { offsetInCU: 0x2A6EA, offset: 0x2A6EA, size: 0x8, addend: 0x0, symName: __ZNSt3__112__tuple_leafILm0ERKNS_12basic_stringIcNS_11char_traitsIcEENS_9allocatorIcEEEELb0EE3getB7v160006Ev, symObjAddr: 0xC3FC, symBinAddr: 0x10000D9C4, symSize: 0x18 }
  - { offsetInCU: 0x2A710, offset: 0x2A710, size: 0x8, addend: 0x0, symName: __ZNSt3__15tupleIJRKNS_12basic_stringIcNS_11char_traitsIcEENS_9allocatorIcEEEEEEC1B7v160006INS_4_AndELi0EEES8_, symObjAddr: 0xC414, symBinAddr: 0x10000D9DC, symSize: 0x34 }
  - { offsetInCU: 0x2A758, offset: 0x2A758, size: 0x8, addend: 0x0, symName: __ZNSt3__15tupleIJRKNS_12basic_stringIcNS_11char_traitsIcEENS_9allocatorIcEEEEEEC2B7v160006INS_4_AndELi0EEES8_, symObjAddr: 0xC448, symBinAddr: 0x10000DA10, symSize: 0x34 }
  - { offsetInCU: 0x2A7A0, offset: 0x2A7A0, size: 0x8, addend: 0x0, symName: __ZNSt3__112__tuple_implINS_15__tuple_indicesIJLm0EEEEJRKNS_12basic_stringIcNS_11char_traitsIcEENS_9allocatorIcEEEEEEC1B7v160006IJLm0EEJSA_EJEJEJSA_EEENS1_IJXspT_EEEENS_13__tuple_typesIJDpT0_EEENS1_IJXspT1_EEEENSE_IJDpT2_EEEDpOT3_, symObjAddr: 0xC47C, symBinAddr: 0x10000DA44, symSize: 0x34 }
  - { offsetInCU: 0x2A831, offset: 0x2A831, size: 0x8, addend: 0x0, symName: __ZNSt3__112__tuple_implINS_15__tuple_indicesIJLm0EEEEJRKNS_12basic_stringIcNS_11char_traitsIcEENS_9allocatorIcEEEEEEC2B7v160006IJLm0EEJSA_EJEJEJSA_EEENS1_IJXspT_EEEENS_13__tuple_typesIJDpT0_EEENS1_IJXspT1_EEEENSE_IJDpT2_EEEDpOT3_, symObjAddr: 0xC4B0, symBinAddr: 0x10000DA78, symSize: 0x34 }
  - { offsetInCU: 0x2A8C2, offset: 0x2A8C2, size: 0x8, addend: 0x0, symName: __ZNSt3__112__tuple_leafILm0ERKNS_12basic_stringIcNS_11char_traitsIcEENS_9allocatorIcEEEELb0EEC2B7v160006IS8_vEEOT_, symObjAddr: 0xC4E4, symBinAddr: 0x10000DAAC, symSize: 0x20 }
  - { offsetInCU: 0x2A905, offset: 0x2A905, size: 0x8, addend: 0x0, symName: __ZNSt3__16vectorIN8workflow11requirementENS_9allocatorIS2_EEEaSB7v160006ERKS5_, symObjAddr: 0xC504, symBinAddr: 0x10000DACC, symSize: 0x68 }
  - { offsetInCU: 0x2A93C, offset: 0x2A93C, size: 0x8, addend: 0x0, symName: __ZNSt3__16vectorIN8workflow11requirementENS_9allocatorIS2_EEE19__copy_assign_allocB7v160006ERKS5_, symObjAddr: 0xC56C, symBinAddr: 0x10000DB34, symSize: 0x2C }
  - { offsetInCU: 0x2A971, offset: 0x2A971, size: 0x8, addend: 0x0, symName: __ZNSt3__16vectorIN8workflow11requirementENS_9allocatorIS2_EEE6assignIPS2_Li0EEEvT_S8_, symObjAddr: 0xC598, symBinAddr: 0x10000DB60, symSize: 0x17C }
  - { offsetInCU: 0x2AA10, offset: 0x2AA10, size: 0x8, addend: 0x0, symName: __ZNSt3__16vectorIN8workflow11requirementENS_9allocatorIS2_EEE19__copy_assign_allocB7v160006ERKS5_NS_17integral_constantIbLb0EEE, symObjAddr: 0xC714, symBinAddr: 0x10000DCDC, symSize: 0x14 }
  - { offsetInCU: 0x2AA69, offset: 0x2AA69, size: 0x8, addend: 0x0, symName: __ZNKSt3__114__copy_trivialclB7v160006IN8workflow11requirementES3_Li0EEENS_4pairIPT_PT0_EES6_S6_S8_, symObjAddr: 0xC984, symBinAddr: 0x10000DF4C, symSize: 0x48 }
  - { offsetInCU: 0x2AAD1, offset: 0x2AAD1, size: 0x8, addend: 0x0, symName: __ZNSt3__119__unwrap_range_implIPN8workflow11requirementES3_E8__unwrapB7v160006ES3_S3_, symObjAddr: 0xCA30, symBinAddr: 0x10000DFF8, symSize: 0x58 }
  - { offsetInCU: 0x2AB02, offset: 0x2AB02, size: 0x8, addend: 0x0, symName: __ZNSt3__14pairIPN8workflow11requirementES3_EC1B7v160006IS3_S3_LPv0EEEOT_OT0_, symObjAddr: 0xCA88, symBinAddr: 0x10000E050, symSize: 0x3C }
  - { offsetInCU: 0x2AB60, offset: 0x2AB60, size: 0x8, addend: 0x0, symName: __ZNSt3__14pairIPN8workflow11requirementES3_EC2B7v160006IS3_S3_LPv0EEEOT_OT0_, symObjAddr: 0xCAC4, symBinAddr: 0x10000E08C, symSize: 0x34 }
  - { offsetInCU: 0x2ABBE, offset: 0x2ABBE, size: 0x8, addend: 0x0, symName: __ZNSt3__14pairIPN8workflow11requirementES3_EC1B7v160006IRS3_S3_LPv0EEEOT_OT0_, symObjAddr: 0xCBB4, symBinAddr: 0x10000E17C, symSize: 0x3C }
  - { offsetInCU: 0x2AC1C, offset: 0x2AC1C, size: 0x8, addend: 0x0, symName: __ZNSt3__14pairIPN8workflow11requirementES3_EC2B7v160006IRS3_S3_LPv0EEEOT_OT0_, symObjAddr: 0xCBF0, symBinAddr: 0x10000E1B8, symSize: 0x34 }
  - { offsetInCU: 0x2AC7A, offset: 0x2AC7A, size: 0x8, addend: 0x0, symName: __ZNSt3__119__unwrap_range_implIPN8workflow11requirementES3_E8__rewrapB7v160006ES3_S3_, symObjAddr: 0xCC24, symBinAddr: 0x10000E1EC, symSize: 0x2C }
  - { offsetInCU: 0x2ACAB, offset: 0x2ACAB, size: 0x8, addend: 0x0, symName: __ZNSt3__14pairINS_12basic_stringIcNS_11char_traitsIcEENS_9allocatorIcEEEENS_6vectorIN8workflow11requirementENS4_IS9_EEEEED2Ev, symObjAddr: 0xCC50, symBinAddr: 0x10000E218, symSize: 0x38 }
  - { offsetInCU: 0x2ACD7, offset: 0x2ACD7, size: 0x8, addend: 0x0, symName: __ZNSt3__113unordered_mapINS_12basic_stringIcNS_11char_traitsIcEENS_9allocatorIcEEEEmNS_4hashIS6_EENS_8equal_toIS6_EENS4_INS_4pairIKS6_mEEEEE5beginB7v160006Ev, symObjAddr: 0xCC88, symBinAddr: 0x10000E250, symSize: 0x38 }
  - { offsetInCU: 0x2ACFD, offset: 0x2ACFD, size: 0x8, addend: 0x0, symName: __ZNSt3__113unordered_mapINS_12basic_stringIcNS_11char_traitsIcEENS_9allocatorIcEEEEmNS_4hashIS6_EENS_8equal_toIS6_EENS4_INS_4pairIKS6_mEEEEE3endB7v160006Ev, symObjAddr: 0xCCC0, symBinAddr: 0x10000E288, symSize: 0x38 }
  - { offsetInCU: 0x2AD23, offset: 0x2AD23, size: 0x8, addend: 0x0, symName: __ZNKSt3__119__hash_map_iteratorINS_15__hash_iteratorIPNS_11__hash_nodeINS_17__hash_value_typeINS_12basic_stringIcNS_11char_traitsIcEENS_9allocatorIcEEEEmEEPvEEEEEdeB7v160006Ev, symObjAddr: 0xCD28, symBinAddr: 0x10000E2F0, symSize: 0x28 }
  - { offsetInCU: 0x2AD66, offset: 0x2AD66, size: 0x8, addend: 0x0, symName: __ZNSt3__14pairINS_12basic_stringIcNS_11char_traitsIcEENS_9allocatorIcEEEEmEC1B7v160006IRNS0_IKS6_mEELPv0EEEOT_, symObjAddr: 0xCD50, symBinAddr: 0x10000E318, symSize: 0x34 }
  - { offsetInCU: 0x2ADAE, offset: 0x2ADAE, size: 0x8, addend: 0x0, symName: __ZNSt3__14pairINS_12basic_stringIcNS_11char_traitsIcEENS_9allocatorIcEEEEmED1Ev, symObjAddr: 0xCDD0, symBinAddr: 0x10000E398, symSize: 0x2C }
  - { offsetInCU: 0x2ADDA, offset: 0x2ADDA, size: 0x8, addend: 0x0, symName: __ZNSt3__119__hash_map_iteratorINS_15__hash_iteratorIPNS_11__hash_nodeINS_17__hash_value_typeINS_12basic_stringIcNS_11char_traitsIcEENS_9allocatorIcEEEEmEEPvEEEEEppB7v160006Ev, symObjAddr: 0xCDFC, symBinAddr: 0x10000E3C4, symSize: 0x2C }
  - { offsetInCU: 0x2AE00, offset: 0x2AE00, size: 0x8, addend: 0x0, symName: __ZNSt3__112__hash_tableINS_17__hash_value_typeINS_12basic_stringIcNS_11char_traitsIcEENS_9allocatorIcEEEEmEENS_22__unordered_map_hasherIS7_S8_NS_4hashIS7_EENS_8equal_toIS7_EELb1EEENS_21__unordered_map_equalIS7_S8_SD_SB_Lb1EEENS5_IS8_EEE5beginEv, symObjAddr: 0xCE28, symBinAddr: 0x10000E3F0, symSize: 0x40 }
  - { offsetInCU: 0x2AE28, offset: 0x2AE28, size: 0x8, addend: 0x0, symName: __ZNSt3__119__hash_map_iteratorINS_15__hash_iteratorIPNS_11__hash_nodeINS_17__hash_value_typeINS_12basic_stringIcNS_11char_traitsIcEENS_9allocatorIcEEEEmEEPvEEEEEC1B7v160006ESE_, symObjAddr: 0xCE68, symBinAddr: 0x10000E430, symSize: 0x34 }
  - { offsetInCU: 0x2AE61, offset: 0x2AE61, size: 0x8, addend: 0x0, symName: __ZNSt3__119__hash_map_iteratorINS_15__hash_iteratorIPNS_11__hash_nodeINS_17__hash_value_typeINS_12basic_stringIcNS_11char_traitsIcEENS_9allocatorIcEEEEmEEPvEEEEEC2B7v160006ESE_, symObjAddr: 0xCE9C, symBinAddr: 0x10000E464, symSize: 0x20 }
  - { offsetInCU: 0x2AE9A, offset: 0x2AE9A, size: 0x8, addend: 0x0, symName: __ZNSt3__112__hash_tableINS_17__hash_value_typeINS_12basic_stringIcNS_11char_traitsIcEENS_9allocatorIcEEEEmEENS_22__unordered_map_hasherIS7_S8_NS_4hashIS7_EENS_8equal_toIS7_EELb1EEENS_21__unordered_map_equalIS7_S8_SD_SB_Lb1EEENS5_IS8_EEE3endEv, symObjAddr: 0xCEBC, symBinAddr: 0x10000E484, symSize: 0x30 }
  - { offsetInCU: 0x2AEC2, offset: 0x2AEC2, size: 0x8, addend: 0x0, symName: __ZNSt3__14pairINS_12basic_stringIcNS_11char_traitsIcEENS_9allocatorIcEEEEmEC2B7v160006IRNS0_IKS6_mEELPv0EEEOT_, symObjAddr: 0xCF50, symBinAddr: 0x10000E518, symSize: 0x54 }
  - { offsetInCU: 0x2AF0A, offset: 0x2AF0A, size: 0x8, addend: 0x0, symName: __ZNSt3__110__get_pairILm0EE3getB7v160006IKNS_12basic_stringIcNS_11char_traitsIcEENS_9allocatorIcEEEEmEERT_RNS_4pairISA_T0_EE, symObjAddr: 0xCFEC, symBinAddr: 0x10000E5B4, symSize: 0x14 }
  - { offsetInCU: 0x2AF40, offset: 0x2AF40, size: 0x8, addend: 0x0, symName: __ZNSt3__110__get_pairILm1EE3getB7v160006IKNS_12basic_stringIcNS_11char_traitsIcEENS_9allocatorIcEEEEmEERT0_RNS_4pairIT_SA_EE, symObjAddr: 0xD000, symBinAddr: 0x10000E5C8, symSize: 0x18 }
  - { offsetInCU: 0x2AF99, offset: 0x2AF99, size: 0x8, addend: 0x0, symName: __ZNKSt3__113basic_ostreamIcNS_11char_traitsIcEEE6sentrycvbB7v160006Ev, symObjAddr: 0xD204, symBinAddr: 0x10000E7CC, symSize: 0x1C }
  - { offsetInCU: 0x2AFBF, offset: 0x2AFBF, size: 0x8, addend: 0x0, symName: __ZNSt3__119ostreambuf_iteratorIcNS_11char_traitsIcEEEC1B7v160006ERNS_13basic_ostreamIcS2_EE, symObjAddr: 0xD460, symBinAddr: 0x10000EA28, symSize: 0x34 }
  - { offsetInCU: 0x2AFF7, offset: 0x2AFF7, size: 0x8, addend: 0x0, symName: __ZNKSt3__18ios_base5flagsB7v160006Ev, symObjAddr: 0xD494, symBinAddr: 0x10000EA5C, symSize: 0x18 }
  - { offsetInCU: 0x2B01F, offset: 0x2B01F, size: 0x8, addend: 0x0, symName: __ZNKSt3__19basic_iosIcNS_11char_traitsIcEEE4fillB7v160006Ev, symObjAddr: 0xD4AC, symBinAddr: 0x10000EA74, symSize: 0x64 }
  - { offsetInCU: 0x2B047, offset: 0x2B047, size: 0x8, addend: 0x0, symName: __ZNKSt3__119ostreambuf_iteratorIcNS_11char_traitsIcEEE6failedB7v160006Ev, symObjAddr: 0xD510, symBinAddr: 0x10000EAD8, symSize: 0x24 }
  - { offsetInCU: 0x2B06D, offset: 0x2B06D, size: 0x8, addend: 0x0, symName: __ZNSt3__19basic_iosIcNS_11char_traitsIcEEE8setstateB7v160006Ej, symObjAddr: 0xD534, symBinAddr: 0x10000EAFC, symSize: 0x2C }
  - { offsetInCU: 0x2B0A2, offset: 0x2B0A2, size: 0x8, addend: 0x0, symName: __ZNKSt3__18ios_base5widthB7v160006Ev, symObjAddr: 0xD560, symBinAddr: 0x10000EB28, symSize: 0x18 }
  - { offsetInCU: 0x2B0CA, offset: 0x2B0CA, size: 0x8, addend: 0x0, symName: __ZNSt3__115basic_streambufIcNS_11char_traitsIcEEE5sputnB7v160006EPKcl, symObjAddr: 0xD578, symBinAddr: 0x10000EB40, symSize: 0x3C }
  - { offsetInCU: 0x2B10C, offset: 0x2B10C, size: 0x8, addend: 0x0, symName: __ZNSt3__112basic_stringIcNS_11char_traitsIcEENS_9allocatorIcEEEC1B7v160006Emc, symObjAddr: 0xD5B4, symBinAddr: 0x10000EB7C, symSize: 0x3C }
  - { offsetInCU: 0x2B154, offset: 0x2B154, size: 0x8, addend: 0x0, symName: __ZNSt3__112basic_stringIcNS_11char_traitsIcEENS_9allocatorIcEEE4dataB7v160006Ev, symObjAddr: 0xD5F0, symBinAddr: 0x10000EBB8, symSize: 0x28 }
  - { offsetInCU: 0x2B17A, offset: 0x2B17A, size: 0x8, addend: 0x0, symName: __ZNSt3__18ios_base5widthB7v160006El, symObjAddr: 0xD618, symBinAddr: 0x10000EBE0, symSize: 0x2C }
  - { offsetInCU: 0x2B1C0, offset: 0x2B1C0, size: 0x8, addend: 0x0, symName: __ZNSt3__112basic_stringIcNS_11char_traitsIcEENS_9allocatorIcEEEC2B7v160006Emc, symObjAddr: 0xD644, symBinAddr: 0x10000EC0C, symSize: 0x54 }
  - { offsetInCU: 0x2B208, offset: 0x2B208, size: 0x8, addend: 0x0, symName: __ZNSt3__119ostreambuf_iteratorIcNS_11char_traitsIcEEEC2B7v160006ERNS_13basic_ostreamIcS2_EE, symObjAddr: 0xD6AC, symBinAddr: 0x10000EC74, symSize: 0x54 }
  - { offsetInCU: 0x2B240, offset: 0x2B240, size: 0x8, addend: 0x0, symName: __ZNKSt3__19basic_iosIcNS_11char_traitsIcEEE5rdbufB7v160006Ev, symObjAddr: 0xD700, symBinAddr: 0x10000ECC8, symSize: 0x24 }
  - { offsetInCU: 0x2B268, offset: 0x2B268, size: 0x8, addend: 0x0, symName: __ZNKSt3__18ios_base5rdbufB7v160006Ev, symObjAddr: 0xD724, symBinAddr: 0x10000ECEC, symSize: 0x18 }
  - { offsetInCU: 0x2B28E, offset: 0x2B28E, size: 0x8, addend: 0x0, symName: __ZNSt3__111char_traitsIcE11eq_int_typeEii, symObjAddr: 0xD73C, symBinAddr: 0x10000ED04, symSize: 0x28 }
  - { offsetInCU: 0x2B2BF, offset: 0x2B2BF, size: 0x8, addend: 0x0, symName: __ZNSt3__111char_traitsIcE3eofEv, symObjAddr: 0xD764, symBinAddr: 0x10000ED2C, symSize: 0x8 }
  - { offsetInCU: 0x2B2D3, offset: 0x2B2D3, size: 0x8, addend: 0x0, symName: __ZNKSt3__19basic_iosIcNS_11char_traitsIcEEE5widenB7v160006Ec, symObjAddr: 0xD76C, symBinAddr: 0x10000ED34, symSize: 0x84 }
  - { offsetInCU: 0x2B348, offset: 0x2B348, size: 0x8, addend: 0x0, symName: __ZNKSt3__15ctypeIcE5widenB7v160006Ec, symObjAddr: 0xD81C, symBinAddr: 0x10000EDE4, symSize: 0x38 }
  - { offsetInCU: 0x2B37D, offset: 0x2B37D, size: 0x8, addend: 0x0, symName: __ZNSt3__18ios_base8setstateB7v160006Ej, symObjAddr: 0xD854, symBinAddr: 0x10000EE1C, symSize: 0x34 }
  - { offsetInCU: 0x2B3B4, offset: 0x2B3B4, size: 0x8, addend: 0x0, symName: __ZNSt3__14pairINS_12basic_stringIcNS_11char_traitsIcEENS_9allocatorIcEEEEmED2Ev, symObjAddr: 0xD888, symBinAddr: 0x10000EE50, symSize: 0x2C }
  - { offsetInCU: 0x2B3E0, offset: 0x2B3E0, size: 0x8, addend: 0x0, symName: __ZNSt3__115__hash_iteratorIPNS_11__hash_nodeINS_17__hash_value_typeINS_12basic_stringIcNS_11char_traitsIcEENS_9allocatorIcEEEEmEEPvEEEppB7v160006Ev, symObjAddr: 0xD8B4, symBinAddr: 0x10000EE7C, symSize: 0x20 }
  - { offsetInCU: 0x2B406, offset: 0x2B406, size: 0x8, addend: 0x0, symName: __ZN7ratingsC2ENSt3__112basic_stringIcNS0_11char_traitsIcEENS0_9allocatorIcEEEE, symObjAddr: 0xD8D4, symBinAddr: 0x10000EE9C, symSize: 0x21C }
  - { offsetInCU: 0x2B4A6, offset: 0x2B4A6, size: 0x8, addend: 0x0, symName: __ZNSt3__16vectorIiNS_9allocatorIiEEEC1B7v160006Ev, symObjAddr: 0xDAF0, symBinAddr: 0x10000F0B8, symSize: 0x2C }
  - { offsetInCU: 0x2B4D0, offset: 0x2B4D0, size: 0x8, addend: 0x0, symName: __ZNSt3__16vectorIiNS_9allocatorIiEEE5clearB7v160006Ev, symObjAddr: 0xDB1C, symBinAddr: 0x10000F0E4, symSize: 0x54 }
  - { offsetInCU: 0x2B505, offset: 0x2B505, size: 0x8, addend: 0x0, symName: __ZNSt3__112basic_stringIcNS_11char_traitsIcEENS_9allocatorIcEEE5beginB7v160006Ev, symObjAddr: 0xDB70, symBinAddr: 0x10000F138, symSize: 0x4C }
  - { offsetInCU: 0x2B52B, offset: 0x2B52B, size: 0x8, addend: 0x0, symName: __ZNSt3__112basic_stringIcNS_11char_traitsIcEENS_9allocatorIcEEE3endB7v160006Ev, symObjAddr: 0xDBBC, symBinAddr: 0x10000F184, symSize: 0x54 }
  - { offsetInCU: 0x2B551, offset: 0x2B551, size: 0x8, addend: 0x0, symName: __ZNKSt3__111__wrap_iterIPcEdeB7v160006Ev, symObjAddr: 0xDC44, symBinAddr: 0x10000F20C, symSize: 0x18 }
  - { offsetInCU: 0x2B577, offset: 0x2B577, size: 0x8, addend: 0x0, symName: __ZNSt3__16vectorIiNS_9allocatorIiEEE9push_backB7v160006EOi, symObjAddr: 0xDC5C, symBinAddr: 0x10000F224, symSize: 0x6C }
  - { offsetInCU: 0x2B5AE, offset: 0x2B5AE, size: 0x8, addend: 0x0, symName: __ZNSt3__111__wrap_iterIPcEppB7v160006Ev, symObjAddr: 0xDCC8, symBinAddr: 0x10000F290, symSize: 0x20 }
  - { offsetInCU: 0x2B5D4, offset: 0x2B5D4, size: 0x8, addend: 0x0, symName: __ZNSt3__112basic_stringIcNS_11char_traitsIcEENS_9allocatorIcEEEaSB7v160006EOS5_, symObjAddr: 0xDCE8, symBinAddr: 0x10000F2B0, symSize: 0x34 }
  - { offsetInCU: 0x2B609, offset: 0x2B609, size: 0x8, addend: 0x0, symName: __ZNSt3__112basic_stringIcNS_11char_traitsIcEENS_9allocatorIcEEE8pop_backB7v160006Ev, symObjAddr: 0xDD1C, symBinAddr: 0x10000F2E4, symSize: 0x38 }
  - { offsetInCU: 0x2B631, offset: 0x2B631, size: 0x8, addend: 0x0, symName: __ZNSt3__16vectorIiNS_9allocatorIiEEED1B7v160006Ev, symObjAddr: 0xDD54, symBinAddr: 0x10000F31C, symSize: 0x2C }
  - { offsetInCU: 0x2B65B, offset: 0x2B65B, size: 0x8, addend: 0x0, symName: __ZNSt3__16vectorIiNS_9allocatorIiEEEC2B7v160006Ev, symObjAddr: 0xDD80, symBinAddr: 0x10000F348, symSize: 0x58 }
  - { offsetInCU: 0x2B685, offset: 0x2B685, size: 0x8, addend: 0x0, symName: __ZNSt3__117__compressed_pairIPiNS_9allocatorIiEEEC1B7v160006IDnNS_18__default_init_tagEEEOT_OT0_, symObjAddr: 0xDDD8, symBinAddr: 0x10000F3A0, symSize: 0x3C }
  - { offsetInCU: 0x2B6DD, offset: 0x2B6DD, size: 0x8, addend: 0x0, symName: __ZNSt3__117__compressed_pairIPiNS_9allocatorIiEEEC2B7v160006IDnNS_18__default_init_tagEEEOT_OT0_, symObjAddr: 0xDE24, symBinAddr: 0x10000F3EC, symSize: 0x40 }
  - { offsetInCU: 0x2B735, offset: 0x2B735, size: 0x8, addend: 0x0, symName: __ZNSt3__122__compressed_pair_elemIPiLi0ELb0EEC2B7v160006IDnvEEOT_, symObjAddr: 0xDE64, symBinAddr: 0x10000F42C, symSize: 0x1C }
  - { offsetInCU: 0x2B777, offset: 0x2B777, size: 0x8, addend: 0x0, symName: __ZNSt3__122__compressed_pair_elemINS_9allocatorIiEELi1ELb1EEC2B7v160006ENS_18__default_init_tagE, symObjAddr: 0xDE80, symBinAddr: 0x10000F448, symSize: 0x2C }
  - { offsetInCU: 0x2B7AB, offset: 0x2B7AB, size: 0x8, addend: 0x0, symName: __ZNSt3__19allocatorIiEC2B7v160006Ev, symObjAddr: 0xDEAC, symBinAddr: 0x10000F474, symSize: 0x2C }
  - { offsetInCU: 0x2B7D5, offset: 0x2B7D5, size: 0x8, addend: 0x0, symName: __ZNSt3__116__non_trivial_ifILb1ENS_9allocatorIiEEEC2B7v160006Ev, symObjAddr: 0xDED8, symBinAddr: 0x10000F4A0, symSize: 0x14 }
  - { offsetInCU: 0x2B7FF, offset: 0x2B7FF, size: 0x8, addend: 0x0, symName: __ZNKSt3__16vectorIiNS_9allocatorIiEEE4sizeB7v160006Ev, symObjAddr: 0xDEEC, symBinAddr: 0x10000F4B4, symSize: 0x28 }
  - { offsetInCU: 0x2B825, offset: 0x2B825, size: 0x8, addend: 0x0, symName: __ZNSt3__16vectorIiNS_9allocatorIiEEE7__clearB7v160006Ev, symObjAddr: 0xDF14, symBinAddr: 0x10000F4DC, symSize: 0x28 }
  - { offsetInCU: 0x2B84B, offset: 0x2B84B, size: 0x8, addend: 0x0, symName: __ZNKSt3__16vectorIiNS_9allocatorIiEEE17__annotate_shrinkB7v160006Em, symObjAddr: 0xDF3C, symBinAddr: 0x10000F504, symSize: 0xB4 }
  - { offsetInCU: 0x2B880, offset: 0x2B880, size: 0x8, addend: 0x0, symName: __ZNSt3__16vectorIiNS_9allocatorIiEEE22__base_destruct_at_endB7v160006EPi, symObjAddr: 0xE000, symBinAddr: 0x10000F5C8, symSize: 0x8C }
  - { offsetInCU: 0x2B8C4, offset: 0x2B8C4, size: 0x8, addend: 0x0, symName: __ZNSt3__116allocator_traitsINS_9allocatorIiEEE7destroyB7v160006IivvEEvRS2_PT_, symObjAddr: 0xE08C, symBinAddr: 0x10000F654, symSize: 0x28 }
  - { offsetInCU: 0x2B8FE, offset: 0x2B8FE, size: 0x8, addend: 0x0, symName: __ZNSt3__16vectorIiNS_9allocatorIiEEE7__allocB7v160006Ev, symObjAddr: 0xE0B4, symBinAddr: 0x10000F67C, symSize: 0x28 }
  - { offsetInCU: 0x2B924, offset: 0x2B924, size: 0x8, addend: 0x0, symName: __ZNSt3__117__compressed_pairIPiNS_9allocatorIiEEE6secondB7v160006Ev, symObjAddr: 0xE124, symBinAddr: 0x10000F6EC, symSize: 0x24 }
  - { offsetInCU: 0x2B94A, offset: 0x2B94A, size: 0x8, addend: 0x0, symName: __ZNSt3__122__compressed_pair_elemINS_9allocatorIiEELi1ELb1EE5__getB7v160006Ev, symObjAddr: 0xE148, symBinAddr: 0x10000F710, symSize: 0x14 }
  - { offsetInCU: 0x2B970, offset: 0x2B970, size: 0x8, addend: 0x0, symName: __ZNKSt3__16vectorIiNS_9allocatorIiEEE31__annotate_contiguous_containerB7v160006EPKvS5_S5_S5_, symObjAddr: 0xE15C, symBinAddr: 0x10000F724, symSize: 0x20 }
  - { offsetInCU: 0x2B9C2, offset: 0x2B9C2, size: 0x8, addend: 0x0, symName: __ZNKSt3__16vectorIiNS_9allocatorIiEEE4dataB7v160006Ev, symObjAddr: 0xE17C, symBinAddr: 0x10000F744, symSize: 0x28 }
  - { offsetInCU: 0x2B9E8, offset: 0x2B9E8, size: 0x8, addend: 0x0, symName: __ZNKSt3__16vectorIiNS_9allocatorIiEEE8capacityB7v160006Ev, symObjAddr: 0xE1A4, symBinAddr: 0x10000F76C, symSize: 0x40 }
  - { offsetInCU: 0x2BA0E, offset: 0x2BA0E, size: 0x8, addend: 0x0, symName: __ZNKSt3__16vectorIiNS_9allocatorIiEEE9__end_capB7v160006Ev, symObjAddr: 0xE1E4, symBinAddr: 0x10000F7AC, symSize: 0x28 }
  - { offsetInCU: 0x2BA34, offset: 0x2BA34, size: 0x8, addend: 0x0, symName: __ZNKSt3__117__compressed_pairIPiNS_9allocatorIiEEE5firstB7v160006Ev, symObjAddr: 0xE20C, symBinAddr: 0x10000F7D4, symSize: 0x24 }
  - { offsetInCU: 0x2BA5A, offset: 0x2BA5A, size: 0x8, addend: 0x0, symName: __ZNKSt3__122__compressed_pair_elemIPiLi0ELb0EE5__getB7v160006Ev, symObjAddr: 0xE230, symBinAddr: 0x10000F7F8, symSize: 0x14 }
  - { offsetInCU: 0x2BA80, offset: 0x2BA80, size: 0x8, addend: 0x0, symName: __ZNSt3__112basic_stringIcNS_11char_traitsIcEENS_9allocatorIcEEE15__make_iteratorB7v160006EPc, symObjAddr: 0xE244, symBinAddr: 0x10000F80C, symSize: 0x34 }
  - { offsetInCU: 0x2BAB5, offset: 0x2BAB5, size: 0x8, addend: 0x0, symName: __ZNSt3__111__wrap_iterIPcEC1B7v160006EPKvS1_, symObjAddr: 0xE278, symBinAddr: 0x10000F840, symSize: 0x3C }
  - { offsetInCU: 0x2BAFB, offset: 0x2BAFB, size: 0x8, addend: 0x0, symName: __ZNSt3__111__wrap_iterIPcEC2B7v160006EPKvS1_, symObjAddr: 0xE2B4, symBinAddr: 0x10000F87C, symSize: 0x24 }
  - { offsetInCU: 0x2BB41, offset: 0x2BB41, size: 0x8, addend: 0x0, symName: __ZNKSt3__111__wrap_iterIPcE4baseB7v160006Ev, symObjAddr: 0xE320, symBinAddr: 0x10000F8E8, symSize: 0x18 }
  - { offsetInCU: 0x2BB67, offset: 0x2BB67, size: 0x8, addend: 0x0, symName: __ZNSt3__16vectorIiNS_9allocatorIiEEE9__end_capB7v160006Ev, symObjAddr: 0xE338, symBinAddr: 0x10000F900, symSize: 0x28 }
  - { offsetInCU: 0x2BB8D, offset: 0x2BB8D, size: 0x8, addend: 0x0, symName: __ZNSt3__16vectorIiNS_9allocatorIiEEE22__construct_one_at_endB7v160006IJiEEEvDpOT_, symObjAddr: 0xE360, symBinAddr: 0x10000F928, symSize: 0x90 }
  - { offsetInCU: 0x2BBDC, offset: 0x2BBDC, size: 0x8, addend: 0x0, symName: __ZNSt3__16vectorIiNS_9allocatorIiEEE21__push_back_slow_pathIiEEvOT_, symObjAddr: 0xE3F0, symBinAddr: 0x10000F9B8, symSize: 0xD8 }
  - { offsetInCU: 0x2BC3A, offset: 0x2BC3A, size: 0x8, addend: 0x0, symName: __ZNSt3__117__compressed_pairIPiNS_9allocatorIiEEE5firstB7v160006Ev, symObjAddr: 0xE4C8, symBinAddr: 0x10000FA90, symSize: 0x24 }
  - { offsetInCU: 0x2BC60, offset: 0x2BC60, size: 0x8, addend: 0x0, symName: __ZNSt3__122__compressed_pair_elemIPiLi0ELb0EE5__getB7v160006Ev, symObjAddr: 0xE4EC, symBinAddr: 0x10000FAB4, symSize: 0x14 }
  - { offsetInCU: 0x2BCA2, offset: 0x2BCA2, size: 0x8, addend: 0x0, symName: __ZNSt3__16vectorIiNS_9allocatorIiEEE21_ConstructTransactionC1B7v160006ERS3_m, symObjAddr: 0xE500, symBinAddr: 0x10000FAC8, symSize: 0x3C }
  - { offsetInCU: 0x2BCEA, offset: 0x2BCEA, size: 0x8, addend: 0x0, symName: __ZNSt3__116allocator_traitsINS_9allocatorIiEEE9constructB7v160006IiJiEvvEEvRS2_PT_DpOT0_, symObjAddr: 0xE53C, symBinAddr: 0x10000FB04, symSize: 0x30 }
  - { offsetInCU: 0x2BD3E, offset: 0x2BD3E, size: 0x8, addend: 0x0, symName: __ZNSt3__16vectorIiNS_9allocatorIiEEE21_ConstructTransactionD1B7v160006Ev, symObjAddr: 0xE56C, symBinAddr: 0x10000FB34, symSize: 0x2C }
  - { offsetInCU: 0x2BD68, offset: 0x2BD68, size: 0x8, addend: 0x0, symName: __ZNSt3__16vectorIiNS_9allocatorIiEEE21_ConstructTransactionC2B7v160006ERS3_m, symObjAddr: 0xE598, symBinAddr: 0x10000FB60, symSize: 0x44 }
  - { offsetInCU: 0x2BDB0, offset: 0x2BDB0, size: 0x8, addend: 0x0, symName: __ZNSt3__16vectorIiNS_9allocatorIiEEE21_ConstructTransactionD2B7v160006Ev, symObjAddr: 0xE608, symBinAddr: 0x10000FBD0, symSize: 0x20 }
  - { offsetInCU: 0x2BDDA, offset: 0x2BDDA, size: 0x8, addend: 0x0, symName: __ZNKSt3__16vectorIiNS_9allocatorIiEEE11__recommendB7v160006Em, symObjAddr: 0xE628, symBinAddr: 0x10000FBF0, symSize: 0xB4 }
  - { offsetInCU: 0x2BE2F, offset: 0x2BE2F, size: 0x8, addend: 0x0, symName: __ZNSt3__114__split_bufferIiRNS_9allocatorIiEEEC1EmmS3_, symObjAddr: 0xE6DC, symBinAddr: 0x10000FCA4, symSize: 0x44 }
  - { offsetInCU: 0x2BE85, offset: 0x2BE85, size: 0x8, addend: 0x0, symName: __ZNSt3__114__split_bufferIiRNS_9allocatorIiEEED1Ev, symObjAddr: 0xE838, symBinAddr: 0x10000FE00, symSize: 0x2C }
  - { offsetInCU: 0x2BEB1, offset: 0x2BEB1, size: 0x8, addend: 0x0, symName: __ZNKSt3__16vectorIiNS_9allocatorIiEEE8max_sizeEv, symObjAddr: 0xE864, symBinAddr: 0x10000FE2C, symSize: 0x60 }
  - { offsetInCU: 0x2BED9, offset: 0x2BED9, size: 0x8, addend: 0x0, symName: __ZNKSt3__16vectorIiNS_9allocatorIiEEE20__throw_length_errorB7v160006Ev, symObjAddr: 0xE8C4, symBinAddr: 0x10000FE8C, symSize: 0x1C }
  - { offsetInCU: 0x2BF0A, offset: 0x2BF0A, size: 0x8, addend: 0x0, symName: __ZNSt3__116allocator_traitsINS_9allocatorIiEEE8max_sizeB7v160006IS2_vvEEmRKS2_, symObjAddr: 0xE8E0, symBinAddr: 0x10000FEA8, symSize: 0x28 }
  - { offsetInCU: 0x2BF35, offset: 0x2BF35, size: 0x8, addend: 0x0, symName: __ZNKSt3__16vectorIiNS_9allocatorIiEEE7__allocB7v160006Ev, symObjAddr: 0xE908, symBinAddr: 0x10000FED0, symSize: 0x28 }
  - { offsetInCU: 0x2BF5B, offset: 0x2BF5B, size: 0x8, addend: 0x0, symName: __ZNKSt3__117__compressed_pairIPiNS_9allocatorIiEEE6secondB7v160006Ev, symObjAddr: 0xE930, symBinAddr: 0x10000FEF8, symSize: 0x24 }
  - { offsetInCU: 0x2BF81, offset: 0x2BF81, size: 0x8, addend: 0x0, symName: __ZNKSt3__122__compressed_pair_elemINS_9allocatorIiEELi1ELb1EE5__getB7v160006Ev, symObjAddr: 0xE954, symBinAddr: 0x10000FF1C, symSize: 0x14 }
  - { offsetInCU: 0x2BFA7, offset: 0x2BFA7, size: 0x8, addend: 0x0, symName: __ZNSt3__114__split_bufferIiRNS_9allocatorIiEEEC2EmmS3_, symObjAddr: 0xE968, symBinAddr: 0x10000FF30, symSize: 0xD4 }
  - { offsetInCU: 0x2C01A, offset: 0x2C01A, size: 0x8, addend: 0x0, symName: __ZNSt3__117__compressed_pairIPiRNS_9allocatorIiEEEC1B7v160006IDnS4_EEOT_OT0_, symObjAddr: 0xEA3C, symBinAddr: 0x100010004, symSize: 0x3C }
  - { offsetInCU: 0x2C072, offset: 0x2C072, size: 0x8, addend: 0x0, symName: __ZNSt3__114__split_bufferIiRNS_9allocatorIiEEE7__allocB7v160006Ev, symObjAddr: 0xEAB8, symBinAddr: 0x100010080, symSize: 0x28 }
  - { offsetInCU: 0x2C098, offset: 0x2C098, size: 0x8, addend: 0x0, symName: __ZNSt3__114__split_bufferIiRNS_9allocatorIiEEE9__end_capB7v160006Ev, symObjAddr: 0xEAE0, symBinAddr: 0x1000100A8, symSize: 0x28 }
  - { offsetInCU: 0x2C0BE, offset: 0x2C0BE, size: 0x8, addend: 0x0, symName: __ZNSt3__117__compressed_pairIPiRNS_9allocatorIiEEEC2B7v160006IDnS4_EEOT_OT0_, symObjAddr: 0xEB08, symBinAddr: 0x1000100D0, symSize: 0x48 }
  - { offsetInCU: 0x2C116, offset: 0x2C116, size: 0x8, addend: 0x0, symName: __ZNSt3__122__compressed_pair_elemIRNS_9allocatorIiEELi1ELb0EEC2B7v160006IS3_vEEOT_, symObjAddr: 0xEB50, symBinAddr: 0x100010118, symSize: 0x20 }
  - { offsetInCU: 0x2C158, offset: 0x2C158, size: 0x8, addend: 0x0, symName: __ZNSt3__19allocatorIiE8allocateB7v160006Em, symObjAddr: 0xEB70, symBinAddr: 0x100010138, symSize: 0x58 }
  - { offsetInCU: 0x2C18C, offset: 0x2C18C, size: 0x8, addend: 0x0, symName: __ZNSt3__117__compressed_pairIPiRNS_9allocatorIiEEE6secondB7v160006Ev, symObjAddr: 0xEBC8, symBinAddr: 0x100010190, symSize: 0x28 }
  - { offsetInCU: 0x2C1B2, offset: 0x2C1B2, size: 0x8, addend: 0x0, symName: __ZNSt3__122__compressed_pair_elemIRNS_9allocatorIiEELi1ELb0EE5__getB7v160006Ev, symObjAddr: 0xEBF0, symBinAddr: 0x1000101B8, symSize: 0x18 }
  - { offsetInCU: 0x2C1D8, offset: 0x2C1D8, size: 0x8, addend: 0x0, symName: __ZNSt3__117__compressed_pairIPiRNS_9allocatorIiEEE5firstB7v160006Ev, symObjAddr: 0xEC08, symBinAddr: 0x1000101D0, symSize: 0x24 }
  - { offsetInCU: 0x2C1FE, offset: 0x2C1FE, size: 0x8, addend: 0x0, symName: __ZNKSt3__16vectorIiNS_9allocatorIiEEE17__annotate_deleteB7v160006Ev, symObjAddr: 0xEC2C, symBinAddr: 0x1000101F4, symSize: 0xB8 }
  - { offsetInCU: 0x2C224, offset: 0x2C224, size: 0x8, addend: 0x0, symName: __ZNSt3__116reverse_iteratorIPiEC1B7v160006ES1_, symObjAddr: 0xED5C, symBinAddr: 0x100010324, symSize: 0x34 }
  - { offsetInCU: 0x2C25C, offset: 0x2C25C, size: 0x8, addend: 0x0, symName: __ZNKSt3__116reverse_iteratorIPiE4baseB7v160006Ev, symObjAddr: 0xED90, symBinAddr: 0x100010358, symSize: 0x18 }
  - { offsetInCU: 0x2C282, offset: 0x2C282, size: 0x8, addend: 0x0, symName: __ZNKSt3__16vectorIiNS_9allocatorIiEEE14__annotate_newB7v160006Em, symObjAddr: 0xEDE4, symBinAddr: 0x1000103AC, symSize: 0xAC }
  - { offsetInCU: 0x2C2D4, offset: 0x2C2D4, size: 0x8, addend: 0x0, symName: __ZNKSt3__111__move_loopINS_17_ClassicAlgPolicyEEclB7v160006INS_16reverse_iteratorIPiEES6_S6_EENS_4pairIT_T1_EES8_T0_S9_, symObjAddr: 0xF148, symBinAddr: 0x100010710, symSize: 0xA0 }
  - { offsetInCU: 0x2C33F, offset: 0x2C33F, size: 0x8, addend: 0x0, symName: __ZNSt3__119__unwrap_range_implINS_16reverse_iteratorIPiEES3_E8__unwrapB7v160006ES3_S3_, symObjAddr: 0xF334, symBinAddr: 0x1000108FC, symSize: 0x84 }
  - { offsetInCU: 0x2C376, offset: 0x2C376, size: 0x8, addend: 0x0, symName: __ZNSt3__14pairINS_16reverse_iteratorIPiEES3_EC1B7v160006IS3_S3_LPv0EEEOT_OT0_, symObjAddr: 0xF3B8, symBinAddr: 0x100010980, symSize: 0x3C }
  - { offsetInCU: 0x2C3D4, offset: 0x2C3D4, size: 0x8, addend: 0x0, symName: __ZNSt3__14pairINS_16reverse_iteratorIPiEES3_EC2B7v160006IS3_S3_LPv0EEEOT_OT0_, symObjAddr: 0xF3F4, symBinAddr: 0x1000109BC, symSize: 0x34 }
  - { offsetInCU: 0x2C432, offset: 0x2C432, size: 0x8, addend: 0x0, symName: __ZNSt3__18_IterOpsINS_17_ClassicAlgPolicyEE11__iter_moveB7v160006IRNS_16reverse_iteratorIPiEEEENS_9enable_ifIXsr12is_referenceIDTdeclsr3stdE7declvalIRT_EEEEE5valueEDTclsr3stdE4movedeclsr3stdE7declvalISA_EEEEE4typeEOS9_, symObjAddr: 0xF470, symBinAddr: 0x100010A38, symSize: 0x28 }
  - { offsetInCU: 0x2C45E, offset: 0x2C45E, size: 0x8, addend: 0x0, symName: __ZNKSt3__116reverse_iteratorIPiEdeB7v160006Ev, symObjAddr: 0xF498, symBinAddr: 0x100010A60, symSize: 0x28 }
  - { offsetInCU: 0x2C492, offset: 0x2C492, size: 0x8, addend: 0x0, symName: __ZNSt3__116reverse_iteratorIPiEppB7v160006Ev, symObjAddr: 0xF4C0, symBinAddr: 0x100010A88, symSize: 0x20 }
  - { offsetInCU: 0x2C4B8, offset: 0x2C4B8, size: 0x8, addend: 0x0, symName: __ZNSt3__18_IterOpsINS_17_ClassicAlgPolicyEE25__validate_iter_referenceB7v160006IRNS_16reverse_iteratorIPiEEEEvv, symObjAddr: 0xF4E0, symBinAddr: 0x100010AA8, symSize: 0x4 }
  - { offsetInCU: 0x2C4D6, offset: 0x2C4D6, size: 0x8, addend: 0x0, symName: __ZNSt3__118__unwrap_iter_implINS_16reverse_iteratorIPiEELb0EE8__unwrapB7v160006ES3_, symObjAddr: 0xF4E4, symBinAddr: 0x100010AAC, symSize: 0x24 }
  - { offsetInCU: 0x2C4F9, offset: 0x2C4F9, size: 0x8, addend: 0x0, symName: __ZNSt3__119__unwrap_range_implINS_16reverse_iteratorIPiEES3_E8__rewrapB7v160006ES3_S3_, symObjAddr: 0xF508, symBinAddr: 0x100010AD0, symSize: 0x5C }
  - { offsetInCU: 0x2C52A, offset: 0x2C52A, size: 0x8, addend: 0x0, symName: __ZNSt3__118__unwrap_iter_implINS_16reverse_iteratorIPiEELb0EE8__rewrapB7v160006ES3_S3_, symObjAddr: 0xF564, symBinAddr: 0x100010B2C, symSize: 0x2C }
  - { offsetInCU: 0x2C557, offset: 0x2C557, size: 0x8, addend: 0x0, symName: __ZNSt3__116reverse_iteratorIPiEC2B7v160006ES1_, symObjAddr: 0xF590, symBinAddr: 0x100010B58, symSize: 0x28 }
  - { offsetInCU: 0x2C58F, offset: 0x2C58F, size: 0x8, addend: 0x0, symName: __ZNSt3__114__split_bufferIiRNS_9allocatorIiEEED2Ev, symObjAddr: 0xF5B8, symBinAddr: 0x100010B80, symSize: 0x8C }
  - { offsetInCU: 0x2C5BB, offset: 0x2C5BB, size: 0x8, addend: 0x0, symName: __ZNSt3__114__split_bufferIiRNS_9allocatorIiEEE5clearB7v160006Ev, symObjAddr: 0xF644, symBinAddr: 0x100010C0C, symSize: 0x28 }
  - { offsetInCU: 0x2C5E1, offset: 0x2C5E1, size: 0x8, addend: 0x0, symName: __ZNSt3__116allocator_traitsINS_9allocatorIiEEE10deallocateB7v160006ERS2_Pim, symObjAddr: 0xF66C, symBinAddr: 0x100010C34, symSize: 0x34 }
  - { offsetInCU: 0x2C623, offset: 0x2C623, size: 0x8, addend: 0x0, symName: __ZNKSt3__114__split_bufferIiRNS_9allocatorIiEEE8capacityB7v160006Ev, symObjAddr: 0xF6A0, symBinAddr: 0x100010C68, symSize: 0x40 }
  - { offsetInCU: 0x2C649, offset: 0x2C649, size: 0x8, addend: 0x0, symName: __ZNSt3__114__split_bufferIiRNS_9allocatorIiEEE17__destruct_at_endB7v160006EPi, symObjAddr: 0xF6E0, symBinAddr: 0x100010CA8, symSize: 0x2C }
  - { offsetInCU: 0x2C67D, offset: 0x2C67D, size: 0x8, addend: 0x0, symName: __ZNSt3__114__split_bufferIiRNS_9allocatorIiEEE17__destruct_at_endB7v160006EPiNS_17integral_constantIbLb0EEE, symObjAddr: 0xF70C, symBinAddr: 0x100010CD4, symSize: 0x80 }
  - { offsetInCU: 0x2C6BD, offset: 0x2C6BD, size: 0x8, addend: 0x0, symName: __ZNSt3__19allocatorIiE10deallocateB7v160006EPim, symObjAddr: 0xF78C, symBinAddr: 0x100010D54, symSize: 0x40 }
  - { offsetInCU: 0x2C6FF, offset: 0x2C6FF, size: 0x8, addend: 0x0, symName: __ZNKSt3__114__split_bufferIiRNS_9allocatorIiEEE9__end_capB7v160006Ev, symObjAddr: 0xF7CC, symBinAddr: 0x100010D94, symSize: 0x28 }
  - { offsetInCU: 0x2C725, offset: 0x2C725, size: 0x8, addend: 0x0, symName: __ZNKSt3__117__compressed_pairIPiRNS_9allocatorIiEEE5firstB7v160006Ev, symObjAddr: 0xF7F4, symBinAddr: 0x100010DBC, symSize: 0x24 }
  - { offsetInCU: 0x2C74B, offset: 0x2C74B, size: 0x8, addend: 0x0, symName: __ZNSt3__112basic_stringIcNS_11char_traitsIcEENS_9allocatorIcEEE13__move_assignB7v160006ERS5_NS_17integral_constantIbLb1EEE, symObjAddr: 0xF818, symBinAddr: 0x100010DE0, symSize: 0xC8 }
  - { offsetInCU: 0x2C78D, offset: 0x2C78D, size: 0x8, addend: 0x0, symName: __ZNSt3__116allocator_traitsINS_9allocatorIcEEE10deallocateB7v160006ERS2_Pcm, symObjAddr: 0xF8E0, symBinAddr: 0x100010EA8, symSize: 0x34 }
  - { offsetInCU: 0x2C7CF, offset: 0x2C7CF, size: 0x8, addend: 0x0, symName: __ZNSt3__112basic_stringIcNS_11char_traitsIcEENS_9allocatorIcEEE7__allocB7v160006Ev, symObjAddr: 0xF914, symBinAddr: 0x100010EDC, symSize: 0x24 }
  - { offsetInCU: 0x2C7F5, offset: 0x2C7F5, size: 0x8, addend: 0x0, symName: __ZNKSt3__112basic_stringIcNS_11char_traitsIcEENS_9allocatorIcEEE14__get_long_capB7v160006Ev, symObjAddr: 0xF938, symBinAddr: 0x100010F00, symSize: 0x30 }
  - { offsetInCU: 0x2C81B, offset: 0x2C81B, size: 0x8, addend: 0x0, symName: __ZNSt3__112basic_stringIcNS_11char_traitsIcEENS_9allocatorIcEEE19__move_assign_allocB7v160006ERS5_, symObjAddr: 0xF968, symBinAddr: 0x100010F30, symSize: 0x2C }
  - { offsetInCU: 0x2C850, offset: 0x2C850, size: 0x8, addend: 0x0, symName: __ZNSt3__19allocatorIcE10deallocateB7v160006EPcm, symObjAddr: 0xF994, symBinAddr: 0x100010F5C, symSize: 0x40 }
  - { offsetInCU: 0x2C892, offset: 0x2C892, size: 0x8, addend: 0x0, symName: __ZNSt3__117__compressed_pairINS_12basic_stringIcNS_11char_traitsIcEENS_9allocatorIcEEE5__repES5_E6secondB7v160006Ev, symObjAddr: 0xF9D4, symBinAddr: 0x100010F9C, symSize: 0x24 }
  - { offsetInCU: 0x2C8B8, offset: 0x2C8B8, size: 0x8, addend: 0x0, symName: __ZNSt3__122__compressed_pair_elemINS_9allocatorIcEELi1ELb1EE5__getB7v160006Ev, symObjAddr: 0xF9F8, symBinAddr: 0x100010FC0, symSize: 0x14 }
  - { offsetInCU: 0x2C8DE, offset: 0x2C8DE, size: 0x8, addend: 0x0, symName: __ZNSt3__112basic_stringIcNS_11char_traitsIcEENS_9allocatorIcEEE19__move_assign_allocB7v160006ERS5_NS_17integral_constantIbLb1EEE, symObjAddr: 0xFA0C, symBinAddr: 0x100010FD4, symSize: 0x38 }
  - { offsetInCU: 0x2C91E, offset: 0x2C91E, size: 0x8, addend: 0x0, symName: __ZNSt3__112basic_stringIcNS_11char_traitsIcEENS_9allocatorIcEEE14__erase_to_endB7v160006Em, symObjAddr: 0xFA44, symBinAddr: 0x10001100C, symSize: 0x40 }
  - { offsetInCU: 0x2C953, offset: 0x2C953, size: 0x8, addend: 0x0, symName: __ZNSt3__112basic_stringIcNS_11char_traitsIcEENS_9allocatorIcEEE19__null_terminate_atB7v160006EPcm, symObjAddr: 0xFA84, symBinAddr: 0x10001104C, symSize: 0x5C }
  - { offsetInCU: 0x2C997, offset: 0x2C997, size: 0x8, addend: 0x0, symName: __ZNSt3__112basic_stringIcNS_11char_traitsIcEENS_9allocatorIcEEE10__set_sizeB7v160006Em, symObjAddr: 0xFAE0, symBinAddr: 0x1000110A8, symSize: 0x54 }
  - { offsetInCU: 0x2C9CC, offset: 0x2C9CC, size: 0x8, addend: 0x0, symName: __ZNSt3__112basic_stringIcNS_11char_traitsIcEENS_9allocatorIcEEE27__invalidate_iterators_pastB7v160006Em, symObjAddr: 0xFB34, symBinAddr: 0x1000110FC, symSize: 0x14 }
  - { offsetInCU: 0x2CA03, offset: 0x2CA03, size: 0x8, addend: 0x0, symName: __ZNSt3__16vectorIiNS_9allocatorIiEEED2B7v160006Ev, symObjAddr: 0xFB48, symBinAddr: 0x100011110, symSize: 0x44 }
  - { offsetInCU: 0x2CA2D, offset: 0x2CA2D, size: 0x8, addend: 0x0, symName: __ZNSt3__16vectorIiNS_9allocatorIiEEE16__destroy_vectorC1ERS3_, symObjAddr: 0xFB8C, symBinAddr: 0x100011154, symSize: 0x34 }
  - { offsetInCU: 0x2CA66, offset: 0x2CA66, size: 0x8, addend: 0x0, symName: __ZNSt3__16vectorIiNS_9allocatorIiEEE16__destroy_vectorclB7v160006Ev, symObjAddr: 0xFBC0, symBinAddr: 0x100011188, symSize: 0x9C }
  - { offsetInCU: 0x2CA8C, offset: 0x2CA8C, size: 0x8, addend: 0x0, symName: __ZNSt3__16vectorIiNS_9allocatorIiEEE16__destroy_vectorC2ERS3_, symObjAddr: 0xFC5C, symBinAddr: 0x100011224, symSize: 0x20 }
  - { offsetInCU: 0x2CAC5, offset: 0x2CAC5, size: 0x8, addend: 0x0, symName: __ZN8workflow7getReqsEv, symObjAddr: 0xFC8C, symBinAddr: 0x100011254, symSize: 0x14 }
  - { offsetInCU: 0x2CAEB, offset: 0x2CAEB, size: 0x8, addend: 0x0, symName: __ZNSt3__16vectorIN8workflow11requirementENS_9allocatorIS2_EEE5beginB7v160006Ev, symObjAddr: 0xFCA0, symBinAddr: 0x100011268, symSize: 0x30 }
  - { offsetInCU: 0x2CB13, offset: 0x2CB13, size: 0x8, addend: 0x0, symName: __ZNSt3__16vectorIN8workflow11requirementENS_9allocatorIS2_EEE3endB7v160006Ev, symObjAddr: 0xFCD0, symBinAddr: 0x100011298, symSize: 0x30 }
  - { offsetInCU: 0x2CB3B, offset: 0x2CB3B, size: 0x8, addend: 0x0, symName: __ZNKSt3__111__wrap_iterIPN8workflow11requirementEEdeB7v160006Ev, symObjAddr: 0xFD34, symBinAddr: 0x1000112FC, symSize: 0x18 }
  - { offsetInCU: 0x2CB61, offset: 0x2CB61, size: 0x8, addend: 0x0, symName: __ZN7ratings9get_valueEN8workflow3reqE, symObjAddr: 0xFD4C, symBinAddr: 0x100011314, symSize: 0x34 }
  - { offsetInCU: 0x2CB95, offset: 0x2CB95, size: 0x8, addend: 0x0, symName: __ZNSt3__111__wrap_iterIPN8workflow11requirementEEppB7v160006Ev, symObjAddr: 0xFD80, symBinAddr: 0x100011348, symSize: 0x20 }
  - { offsetInCU: 0x2CBBB, offset: 0x2CBBB, size: 0x8, addend: 0x0, symName: __ZNSt3__16vectorIN8workflow11requirementENS_9allocatorIS2_EEE11__make_iterB7v160006EPS2_, symObjAddr: 0xFDA0, symBinAddr: 0x100011368, symSize: 0x34 }
  - { offsetInCU: 0x2CBF0, offset: 0x2CBF0, size: 0x8, addend: 0x0, symName: __ZNSt3__111__wrap_iterIPN8workflow11requirementEEC1B7v160006EPKvS3_, symObjAddr: 0xFDD4, symBinAddr: 0x10001139C, symSize: 0x3C }
  - { offsetInCU: 0x2CC36, offset: 0x2CC36, size: 0x8, addend: 0x0, symName: __ZNSt3__111__wrap_iterIPN8workflow11requirementEEC2B7v160006EPKvS3_, symObjAddr: 0xFE10, symBinAddr: 0x1000113D8, symSize: 0x24 }
  - { offsetInCU: 0x2CC7C, offset: 0x2CC7C, size: 0x8, addend: 0x0, symName: __ZNKSt3__111__wrap_iterIPN8workflow11requirementEE4baseB7v160006Ev, symObjAddr: 0xFE7C, symBinAddr: 0x100011444, symSize: 0x18 }
  - { offsetInCU: 0x2CCA2, offset: 0x2CCA2, size: 0x8, addend: 0x0, symName: __ZNSt3__16vectorIiNS_9allocatorIiEEEixB7v160006Em, symObjAddr: 0xFE94, symBinAddr: 0x10001145C, symSize: 0x24 }
  - { offsetInCU: 0x2CCD9, offset: 0x2CCD9, size: 0x8, addend: 0x0, symName: __ZN7ratingsC2ERKS_, symObjAddr: 0xFEB8, symBinAddr: 0x100011480, symSize: 0x34 }
  - { offsetInCU: 0x2CD0E, offset: 0x2CD0E, size: 0x8, addend: 0x0, symName: __ZNSt3__16vectorIiNS_9allocatorIiEEEC1ERKS3_, symObjAddr: 0xFEEC, symBinAddr: 0x1000114B4, symSize: 0x34 }
  - { offsetInCU: 0x2CD49, offset: 0x2CD49, size: 0x8, addend: 0x0, symName: __ZNSt3__16vectorIiNS_9allocatorIiEEEC2ERKS3_, symObjAddr: 0xFF20, symBinAddr: 0x1000114E8, symSize: 0x110 }
  - { offsetInCU: 0x2CDA8, offset: 0x2CDA8, size: 0x8, addend: 0x0, symName: __ZNSt3__116allocator_traitsINS_9allocatorIiEEE37select_on_container_copy_constructionB7v160006IS2_vvEES2_RKS2_, symObjAddr: 0x10030, symBinAddr: 0x1000115F8, symSize: 0x10 }
  - { offsetInCU: 0x2CDDD, offset: 0x2CDDD, size: 0x8, addend: 0x0, symName: __ZNSt3__117__compressed_pairIPiNS_9allocatorIiEEEC1B7v160006IDnS3_EEOT_OT0_, symObjAddr: 0x10040, symBinAddr: 0x100011608, symSize: 0x3C }
  - { offsetInCU: 0x2CE35, offset: 0x2CE35, size: 0x8, addend: 0x0, symName: __ZNSt3__16vectorIiNS_9allocatorIiEEE11__vallocateB7v160006Em, symObjAddr: 0x100BC, symBinAddr: 0x100011684, symSize: 0xAC }
  - { offsetInCU: 0x2CE79, offset: 0x2CE79, size: 0x8, addend: 0x0, symName: __ZNSt3__16vectorIiNS_9allocatorIiEEE18__construct_at_endIPiLi0EEEvT_S6_m, symObjAddr: 0x10168, symBinAddr: 0x100011730, symSize: 0x8C }
  - { offsetInCU: 0x2CEEC, offset: 0x2CEEC, size: 0x8, addend: 0x0, symName: __ZNSt3__128__exception_guard_exceptionsINS_6vectorIiNS_9allocatorIiEEE16__destroy_vectorEE10__completeB7v160006Ev, symObjAddr: 0x101F4, symBinAddr: 0x1000117BC, symSize: 0x1C }
  - { offsetInCU: 0x2CF12, offset: 0x2CF12, size: 0x8, addend: 0x0, symName: __ZNSt3__128__exception_guard_exceptionsINS_6vectorIiNS_9allocatorIiEEE16__destroy_vectorEED1B7v160006Ev, symObjAddr: 0x10210, symBinAddr: 0x1000117D8, symSize: 0x2C }
  - { offsetInCU: 0x2CF3C, offset: 0x2CF3C, size: 0x8, addend: 0x0, symName: __ZNSt3__117__compressed_pairIPiNS_9allocatorIiEEEC2B7v160006IDnS3_EEOT_OT0_, symObjAddr: 0x1023C, symBinAddr: 0x100011804, symSize: 0x44 }
  - { offsetInCU: 0x2CF94, offset: 0x2CF94, size: 0x8, addend: 0x0, symName: __ZNSt3__122__compressed_pair_elemINS_9allocatorIiEELi1ELb1EEC2B7v160006IS2_vEEOT_, symObjAddr: 0x10280, symBinAddr: 0x100011848, symSize: 0x18 }
  - { offsetInCU: 0x2CFD6, offset: 0x2CFD6, size: 0x8, addend: 0x0, symName: __ZNSt3__128__exception_guard_exceptionsINS_6vectorIiNS_9allocatorIiEEE16__destroy_vectorEEC1B7v160006ES5_, symObjAddr: 0x10298, symBinAddr: 0x100011860, symSize: 0x34 }
  - { offsetInCU: 0x2D00E, offset: 0x2D00E, size: 0x8, addend: 0x0, symName: __ZNSt3__128__exception_guard_exceptionsINS_6vectorIiNS_9allocatorIiEEE16__destroy_vectorEEC2B7v160006ES5_, symObjAddr: 0x102CC, symBinAddr: 0x100011894, symSize: 0x24 }
  - { offsetInCU: 0x2D046, offset: 0x2D046, size: 0x8, addend: 0x0, symName: __ZNSt3__129_AllocatorDestroyRangeReverseINS_9allocatorIiEEPiEC1B7v160006ERS2_RS3_S6_, symObjAddr: 0x10430, symBinAddr: 0x1000119F8, symSize: 0x44 }
  - { offsetInCU: 0x2D09D, offset: 0x2D09D, size: 0x8, addend: 0x0, symName: __ZNSt3__116allocator_traitsINS_9allocatorIiEEE9constructB7v160006IiJRiEvvEEvRS2_PT_DpOT0_, symObjAddr: 0x10474, symBinAddr: 0x100011A3C, symSize: 0x30 }
  - { offsetInCU: 0x2D0F1, offset: 0x2D0F1, size: 0x8, addend: 0x0, symName: __ZNSt3__128__exception_guard_exceptionsINS_29_AllocatorDestroyRangeReverseINS_9allocatorIiEEPiEEE10__completeB7v160006Ev, symObjAddr: 0x104A4, symBinAddr: 0x100011A6C, symSize: 0x1C }
  - { offsetInCU: 0x2D117, offset: 0x2D117, size: 0x8, addend: 0x0, symName: __ZNSt3__128__exception_guard_exceptionsINS_29_AllocatorDestroyRangeReverseINS_9allocatorIiEEPiEEED1B7v160006Ev, symObjAddr: 0x104C0, symBinAddr: 0x100011A88, symSize: 0x2C }
  - { offsetInCU: 0x2D141, offset: 0x2D141, size: 0x8, addend: 0x0, symName: __ZNSt3__128__exception_guard_exceptionsINS_29_AllocatorDestroyRangeReverseINS_9allocatorIiEEPiEEEC1B7v160006ES5_, symObjAddr: 0x104EC, symBinAddr: 0x100011AB4, symSize: 0x34 }
  - { offsetInCU: 0x2D17A, offset: 0x2D17A, size: 0x8, addend: 0x0, symName: __ZNSt3__128__exception_guard_exceptionsINS_29_AllocatorDestroyRangeReverseINS_9allocatorIiEEPiEEEC2B7v160006ES5_, symObjAddr: 0x10520, symBinAddr: 0x100011AE8, symSize: 0x30 }
  - { offsetInCU: 0x2D1B3, offset: 0x2D1B3, size: 0x8, addend: 0x0, symName: __ZNSt3__129_AllocatorDestroyRangeReverseINS_9allocatorIiEEPiEC2B7v160006ERS2_RS3_S6_, symObjAddr: 0x10550, symBinAddr: 0x100011B18, symSize: 0x38 }
  - { offsetInCU: 0x2D20A, offset: 0x2D20A, size: 0x8, addend: 0x0, symName: __ZNSt3__128__exception_guard_exceptionsINS_29_AllocatorDestroyRangeReverseINS_9allocatorIiEEPiEEED2B7v160006Ev, symObjAddr: 0x105B4, symBinAddr: 0x100011B7C, symSize: 0x50 }
  - { offsetInCU: 0x2D234, offset: 0x2D234, size: 0x8, addend: 0x0, symName: __ZNKSt3__129_AllocatorDestroyRangeReverseINS_9allocatorIiEEPiEclB7v160006Ev, symObjAddr: 0x10604, symBinAddr: 0x100011BCC, symSize: 0x68 }
  - { offsetInCU: 0x2D260, offset: 0x2D260, size: 0x8, addend: 0x0, symName: __ZNSt3__119__to_address_helperINS_16reverse_iteratorIPiEEvE6__callB7v160006ERKS3_, symObjAddr: 0x10700, symBinAddr: 0x100011CC8, symSize: 0x38 }
  - { offsetInCU: 0x2D283, offset: 0x2D283, size: 0x8, addend: 0x0, symName: __ZNKSt3__116reverse_iteratorIPiEptB7v160006Ev, symObjAddr: 0x10738, symBinAddr: 0x100011D00, symSize: 0x2C }
  - { offsetInCU: 0x2D2A9, offset: 0x2D2A9, size: 0x8, addend: 0x0, symName: __ZNSt3__128__exception_guard_exceptionsINS_6vectorIiNS_9allocatorIiEEE16__destroy_vectorEED2B7v160006Ev, symObjAddr: 0x1082C, symBinAddr: 0x100011DF4, symSize: 0x50 }
  - { offsetInCU: 0x2D2D3, offset: 0x2D2D3, size: 0x8, addend: 0x0, symName: __ZN7ratingsD2Ev, symObjAddr: 0x1087C, symBinAddr: 0x100011E44, symSize: 0x2C }
  - { offsetInCU: 0x2D2FF, offset: 0x2D2FF, size: 0x8, addend: 0x0, symName: __ZN9workflowsD2Ev, symObjAddr: 0x108A8, symBinAddr: 0x100011E70, symSize: 0x38 }
  - { offsetInCU: 0x2D32B, offset: 0x2D32B, size: 0x8, addend: 0x0, symName: __ZNSt3__114basic_ifstreamIcNS_11char_traitsIcEEED2Ev, symObjAddr: 0x108E0, symBinAddr: 0x100011EA8, symSize: 0x64 }
  - { offsetInCU: 0x2D365, offset: 0x2D365, size: 0x8, addend: 0x0, symName: __ZTv0_n24_NSt3__114basic_ifstreamIcNS_11char_traitsIcEEED1Ev, symObjAddr: 0x10944, symBinAddr: 0x100011F0C, symSize: 0x28 }
  - { offsetInCU: 0x2D37C, offset: 0x2D37C, size: 0x8, addend: 0x0, symName: __ZNSt3__19basic_iosIcNS_11char_traitsIcEEEC2B7v160006Ev, symObjAddr: 0x1096C, symBinAddr: 0x100011F34, symSize: 0x44 }
  - { offsetInCU: 0x2D3A6, offset: 0x2D3A6, size: 0x8, addend: 0x0, symName: __ZNSt3__113basic_istreamIcNS_11char_traitsIcEEEC2B7v160006EPNS_15basic_streambufIcS2_EE, symObjAddr: 0x109B0, symBinAddr: 0x100011F78, symSize: 0x64 }
  - { offsetInCU: 0x2D3EB, offset: 0x2D3EB, size: 0x8, addend: 0x0, symName: __ZNSt3__18ios_baseC2B7v160006Ev, symObjAddr: 0x10A14, symBinAddr: 0x100011FDC, symSize: 0x24 }
  - { offsetInCU: 0x2D415, offset: 0x2D415, size: 0x8, addend: 0x0, symName: __ZNSt3__19basic_iosIcNS_11char_traitsIcEEE4initB7v160006EPNS_15basic_streambufIcS2_EE, symObjAddr: 0x10A38, symBinAddr: 0x100012000, symSize: 0x44 }
  - { offsetInCU: 0x2D46F, offset: 0x2D46F, size: 0x8, addend: 0x0, symName: __ZNKSt3__113basic_istreamIcNS_11char_traitsIcEEE6sentrycvbB7v160006Ev, symObjAddr: 0x10CB4, symBinAddr: 0x10001227C, symSize: 0x1C }
  - { offsetInCU: 0x2D495, offset: 0x2D495, size: 0x8, addend: 0x0, symName: __ZNSt3__115basic_streambufIcNS_11char_traitsIcEEE6sbumpcB7v160006Ev, symObjAddr: 0x10CD0, symBinAddr: 0x100012298, symSize: 0x78 }
  - { offsetInCU: 0x2D4BB, offset: 0x2D4BB, size: 0x8, addend: 0x0, symName: __ZNSt3__111char_traitsIcE12to_char_typeEi, symObjAddr: 0x10D48, symBinAddr: 0x100012310, symSize: 0x18 }
  - { offsetInCU: 0x2D4DE, offset: 0x2D4DE, size: 0x8, addend: 0x0, symName: __ZNSt3__111char_traitsIcE2eqEcc, symObjAddr: 0x10D60, symBinAddr: 0x100012328, symSize: 0x28 }
  - { offsetInCU: 0x2D50F, offset: 0x2D50F, size: 0x8, addend: 0x0, symName: __ZNKSt3__112basic_stringIcNS_11char_traitsIcEENS_9allocatorIcEEE8max_sizeB7v160006Ev, symObjAddr: 0x10D88, symBinAddr: 0x100012350, symSize: 0xAC }
  - { offsetInCU: 0x2D561, offset: 0x2D561, size: 0x8, addend: 0x0, symName: __ZNSt3__18ios_base18__setstate_nothrowB7v160006Ej, symObjAddr: 0x10E34, symBinAddr: 0x1000123FC, symSize: 0x64 }
  - { offsetInCU: 0x2D596, offset: 0x2D596, size: 0x8, addend: 0x0, symName: __ZNKSt3__19basic_iosIcNS_11char_traitsIcEEE10exceptionsB7v160006Ev, symObjAddr: 0x10E98, symBinAddr: 0x100012460, symSize: 0x24 }
  - { offsetInCU: 0x2D5BC, offset: 0x2D5BC, size: 0x8, addend: 0x0, symName: __ZNSt3__111char_traitsIcE11to_int_typeEc, symObjAddr: 0x10EBC, symBinAddr: 0x100012484, symSize: 0x14 }
  - { offsetInCU: 0x2D5EA, offset: 0x2D5EA, size: 0x8, addend: 0x0, symName: __ZNSt3__116allocator_traitsINS_9allocatorIcEEE8max_sizeB7v160006IS2_vvEEmRKS2_, symObjAddr: 0x10ED0, symBinAddr: 0x100012498, symSize: 0x28 }
  - { offsetInCU: 0x2D615, offset: 0x2D615, size: 0x8, addend: 0x0, symName: __ZNKSt3__112basic_stringIcNS_11char_traitsIcEENS_9allocatorIcEEE7__allocB7v160006Ev, symObjAddr: 0x10EF8, symBinAddr: 0x1000124C0, symSize: 0x24 }
  - { offsetInCU: 0x2D63B, offset: 0x2D63B, size: 0x8, addend: 0x0, symName: __ZNKSt3__117__compressed_pairINS_12basic_stringIcNS_11char_traitsIcEENS_9allocatorIcEEE5__repES5_E6secondB7v160006Ev, symObjAddr: 0x10F1C, symBinAddr: 0x1000124E4, symSize: 0x24 }
  - { offsetInCU: 0x2D661, offset: 0x2D661, size: 0x8, addend: 0x0, symName: __ZNKSt3__122__compressed_pair_elemINS_9allocatorIcEELi1ELb1EE5__getB7v160006Ev, symObjAddr: 0x10F40, symBinAddr: 0x100012508, symSize: 0x14 }
  - { offsetInCU: 0x2D687, offset: 0x2D687, size: 0x8, addend: 0x0, symName: __ZNKSt3__18ios_base10exceptionsB7v160006Ev, symObjAddr: 0x10F54, symBinAddr: 0x10001251C, symSize: 0x18 }
  - { offsetInCU: 0x2D6AF, offset: 0x2D6AF, size: 0x8, addend: 0x0, symName: __ZNKSt3__19basic_iosIcNS_11char_traitsIcEEE4failB7v160006Ev, symObjAddr: 0x10F6C, symBinAddr: 0x100012534, symSize: 0x28 }
  - { offsetInCU: 0x2D6D5, offset: 0x2D6D5, size: 0x8, addend: 0x0, symName: __ZNKSt3__18ios_base4failB7v160006Ev, symObjAddr: 0x10F94, symBinAddr: 0x10001255C, symSize: 0x28 }
...
