---
triple:          'arm64-apple-darwin'
binary-path:     main.exe
relocations:
  - { offsetInCU: 0x3F, offset: 0x3F, size: 0x8, addend: 0x0, symName: _north_bound, symObjAddr: 0x90988, symBinAddr: 0x100014000, symSize: 0x0 }
  - { offsetInCU: 0x158C4, offset: 0x158C4, size: 0x8, addend: 0x0, symName: __ZNSt3__17advanceB7v160006IP4gridllvEEvRT_T0_, symObjAddr: 0x41AC, symBinAddr: 0x10000830C, symSize: 0x50 }
  - { offsetInCU: 0x15C2A, offset: 0x15C2A, size: 0x8, addend: 0x0, symName: __ZNSt3__17advanceB7v160006IPNS_6vectorI4gridNS_9allocatorIS2_EEEEllvEEvRT_T0_, symObjAddr: 0x5C2C, symBinAddr: 0x100009D8C, symSize: 0x50 }
  - { offsetInCU: 0x15EAA, offset: 0x15EAA, size: 0x8, addend: 0x0, symName: __ZNSt3__17advanceB7v160006INS_16reverse_iteratorIPNS_6vectorI4gridNS_9allocatorIS3_EEEEEEllvEEvRT_T0_, symObjAddr: 0x6088, symBinAddr: 0x10000A1E8, symSize: 0x50 }
  - { offsetInCU: 0x15F15, offset: 0x15F15, size: 0x8, addend: 0x0, symName: __ZNSt3__17advanceB7v160006INS_11__wrap_iterIPNS_6vectorI4gridNS_9allocatorIS3_EEEEEEllvEEvRT_T0_, symObjAddr: 0x68F0, symBinAddr: 0x10000AA50, symSize: 0x50 }
  - { offsetInCU: 0x1619C, offset: 0x1619C, size: 0x8, addend: 0x0, symName: __ZNSt3__124__put_character_sequenceB7v160006IcNS_11char_traitsIcEEEERNS_13basic_ostreamIT_T0_EES7_PKS4_m, symObjAddr: 0x8F74, symBinAddr: 0x10000D0D4, symSize: 0x1EC }
  - { offsetInCU: 0x17213, offset: 0x17213, size: 0x8, addend: 0x0, symName: __ZNSt3__1neB7v160006IPNS_6vectorI4gridNS_9allocatorIS2_EEEEEEbRKNS_11__wrap_iterIT_EESB_, symObjAddr: 0x1B8, symBinAddr: 0x100004318, symSize: 0x34 }
  - { offsetInCU: 0x17256, offset: 0x17256, size: 0x8, addend: 0x0, symName: __ZNSt3__1neB7v160006IP4gridEEbRKNS_11__wrap_iterIT_EES7_, symObjAddr: 0x298, symBinAddr: 0x1000043F8, symSize: 0x34 }
  - { offsetInCU: 0x17299, offset: 0x17299, size: 0x8, addend: 0x0, symName: __ZNSt3__1lsB7v160006INS_11char_traitsIcEEEERNS_13basic_ostreamIcT_EES6_c, symObjAddr: 0x2E4, symBinAddr: 0x100004444, symSize: 0x34 }
  - { offsetInCU: 0x172DF, offset: 0x172DF, size: 0x8, addend: 0x0, symName: __ZNSt3__1lsB7v160006INS_11char_traitsIcEEEERNS_13basic_ostreamIcT_EES6_PKc, symObjAddr: 0x338, symBinAddr: 0x100004498, symSize: 0x48 }
  - { offsetInCU: 0x17325, offset: 0x17325, size: 0x8, addend: 0x0, symName: __ZNSt3__14endlB7v160006IcNS_11char_traitsIcEEEERNS_13basic_ostreamIT_T0_EES7_, symObjAddr: 0x22B4, symBinAddr: 0x100006414, symSize: 0x58 }
  - { offsetInCU: 0x17365, offset: 0x17365, size: 0x8, addend: 0x0, symName: __ZNSt3__17getlineB7v160006IcNS_11char_traitsIcEENS_9allocatorIcEEEERNS_13basic_istreamIT_T0_EES9_RNS_12basic_stringIS6_S7_T1_EE, symObjAddr: 0x24FC, symBinAddr: 0x10000665C, symSize: 0x5C }
  - { offsetInCU: 0x173BD, offset: 0x173BD, size: 0x8, addend: 0x0, symName: __ZNSt3__1neB7v160006IPcEEbRKNS_11__wrap_iterIT_EES6_, symObjAddr: 0x26BC, symBinAddr: 0x10000681C, symSize: 0x34 }
  - { offsetInCU: 0x17400, offset: 0x17400, size: 0x8, addend: 0x0, symName: __ZNSt3__118__debug_db_erase_cB7v160006INS_6vectorIiNS_9allocatorIiEEEEEEvPT_, symObjAddr: 0x2AEC, symBinAddr: 0x100006C4C, symSize: 0x10 }
  - { offsetInCU: 0x17431, offset: 0x17431, size: 0x8, addend: 0x0, symName: __ZNSt3__112__to_addressB7v160006IiEEPT_S2_, symObjAddr: 0x2C30, symBinAddr: 0x100006D90, symSize: 0x14 }
  - { offsetInCU: 0x17466, offset: 0x17466, size: 0x8, addend: 0x0, symName: __ZNSt3__110destroy_atB7v160006IiLi0EEEvPT_, symObjAddr: 0x2CF8, symBinAddr: 0x100006E58, symSize: 0x24 }
  - { offsetInCU: 0x1749D, offset: 0x1749D, size: 0x8, addend: 0x0, symName: __ZNSt3__112__destroy_atB7v160006IiLi0EEEvPT_, symObjAddr: 0x2D1C, symBinAddr: 0x100006E7C, symSize: 0x10 }
  - { offsetInCU: 0x174D4, offset: 0x174D4, size: 0x8, addend: 0x0, symName: __ZNSt3__119__libcpp_deallocateB7v160006EPvmm, symObjAddr: 0x2D6C, symBinAddr: 0x100006ECC, symSize: 0x60 }
  - { offsetInCU: 0x17539, offset: 0x17539, size: 0x8, addend: 0x0, symName: __ZNSt3__124__is_overaligned_for_newB7v160006Em, symObjAddr: 0x2DCC, symBinAddr: 0x100006F2C, symSize: 0x20 }
  - { offsetInCU: 0x17567, offset: 0x17567, size: 0x8, addend: 0x0, symName: __ZNSt3__127__do_deallocate_handle_sizeB7v160006IJSt11align_val_tEEEvPvmDpT_, symObjAddr: 0x2DEC, symBinAddr: 0x100006F4C, symSize: 0x30 }
  - { offsetInCU: 0x175BA, offset: 0x175BA, size: 0x8, addend: 0x0, symName: __ZNSt3__127__do_deallocate_handle_sizeB7v160006IJEEEvPvmDpT_, symObjAddr: 0x2E1C, symBinAddr: 0x100006F7C, symSize: 0x28 }
  - { offsetInCU: 0x175F8, offset: 0x175F8, size: 0x8, addend: 0x0, symName: __ZNSt3__124__libcpp_operator_deleteB7v160006IJPvSt11align_val_tEEEvDpT_, symObjAddr: 0x2E44, symBinAddr: 0x100006FA4, symSize: 0x2C }
  - { offsetInCU: 0x17641, offset: 0x17641, size: 0x8, addend: 0x0, symName: __ZNSt3__124__libcpp_operator_deleteB7v160006IJPvEEEvDpT_, symObjAddr: 0x2E70, symBinAddr: 0x100006FD0, symSize: 0x24 }
  - { offsetInCU: 0x17676, offset: 0x17676, size: 0x8, addend: 0x0, symName: __ZNSt3__1eqB7v160006IPNS_6vectorI4gridNS_9allocatorIS2_EEEEEEbRKNS_11__wrap_iterIT_EESB_, symObjAddr: 0x2FC0, symBinAddr: 0x100007120, symSize: 0x48 }
  - { offsetInCU: 0x176B9, offset: 0x176B9, size: 0x8, addend: 0x0, symName: __ZNSt3__122__make_exception_guardB7v160006INS_6vectorI4gridNS_9allocatorIS2_EEE16__destroy_vectorEEENS_28__exception_guard_exceptionsIT_EES8_, symObjAddr: 0x31A8, symBinAddr: 0x100007308, symSize: 0x40 }
  - { offsetInCU: 0x176EE, offset: 0x176EE, size: 0x8, addend: 0x0, symName: __ZNSt3__119__debug_db_insert_cB7v160006INS_6vectorI4gridNS_9allocatorIS2_EEEEEEvPT_, symObjAddr: 0x321C, symBinAddr: 0x10000737C, symSize: 0x10 }
  - { offsetInCU: 0x1771F, offset: 0x1771F, size: 0x8, addend: 0x0, symName: __ZNSt3__119__allocate_at_leastB7v160006INS_9allocatorI4gridEEEENS_19__allocation_resultINS_16allocator_traitsIT_E7pointerEEERS6_m, symObjAddr: 0x3550, symBinAddr: 0x1000076B0, symSize: 0x40 }
  - { offsetInCU: 0x17762, offset: 0x17762, size: 0x8, addend: 0x0, symName: __ZNSt3__13minB7v160006ImEERKT_S3_S3_, symObjAddr: 0x368C, symBinAddr: 0x1000077EC, symSize: 0x2C }
  - { offsetInCU: 0x1798F, offset: 0x1798F, size: 0x8, addend: 0x0, symName: __ZNSt3__13minB7v160006ImNS_6__lessImmEEEERKT_S5_S5_T0_, symObjAddr: 0x36F4, symBinAddr: 0x100007854, symSize: 0x54 }
  - { offsetInCU: 0x17C10, offset: 0x17C10, size: 0x8, addend: 0x0, symName: __ZNSt3__120__throw_length_errorB7v160006EPKc, symObjAddr: 0x37A0, symBinAddr: 0x100007900, symSize: 0x64 }
  - { offsetInCU: 0x17C38, offset: 0x17C38, size: 0x8, addend: 0x0, symName: __ZNSt3__117__libcpp_allocateB7v160006Emm, symObjAddr: 0x3910, symBinAddr: 0x100007A70, symSize: 0x60 }
  - { offsetInCU: 0x17C92, offset: 0x17C92, size: 0x8, addend: 0x0, symName: __ZNSt3__121__libcpp_operator_newB7v160006IJmSt11align_val_tEEEPvDpT_, symObjAddr: 0x3970, symBinAddr: 0x100007AD0, symSize: 0x2C }
  - { offsetInCU: 0x17CDF, offset: 0x17CDF, size: 0x8, addend: 0x0, symName: __ZNSt3__121__libcpp_operator_newB7v160006IJmEEEPvDpT_, symObjAddr: 0x399C, symBinAddr: 0x100007AFC, symSize: 0x24 }
  - { offsetInCU: 0x17D18, offset: 0x17D18, size: 0x8, addend: 0x0, symName: __ZNSt3__112__to_addressB7v160006I4gridEEPT_S3_, symObjAddr: 0x3AB8, symBinAddr: 0x100007C18, symSize: 0x14 }
  - { offsetInCU: 0x17D4D, offset: 0x17D4D, size: 0x8, addend: 0x0, symName: __ZNSt3__130__uninitialized_allocator_copyB7v160006INS_9allocatorI4gridEEPS2_S4_S4_EET2_RT_T0_T1_S5_, symObjAddr: 0x3B68, symBinAddr: 0x100007CC8, symSize: 0xF4 }
  - { offsetInCU: 0x17DEB, offset: 0x17DEB, size: 0x8, addend: 0x0, symName: __ZNSt3__122__make_exception_guardB7v160006INS_29_AllocatorDestroyRangeReverseINS_9allocatorI4gridEEPS3_EEEENS_28__exception_guard_exceptionsIT_EES8_, symObjAddr: 0x3CCC, symBinAddr: 0x100007E2C, symSize: 0x4C }
  - { offsetInCU: 0x17E46, offset: 0x17E46, size: 0x8, addend: 0x0, symName: __ZNSt3__112construct_atB7v160006I4gridJRS1_EPS1_EEPT_S5_DpOT0_, symObjAddr: 0x3E70, symBinAddr: 0x100007FD0, symSize: 0x2C }
  - { offsetInCU: 0x17EB6, offset: 0x17EB6, size: 0x8, addend: 0x0, symName: __ZNSt3__119__allocator_destroyB7v160006INS_9allocatorI4gridEENS_16reverse_iteratorIPS2_EES6_EEvRT_T0_T1_, symObjAddr: 0x3F54, symBinAddr: 0x1000080B4, symSize: 0x70 }
  - { offsetInCU: 0x17F19, offset: 0x17F19, size: 0x8, addend: 0x0, symName: __ZNSt3__1neB7v160006IP4gridS2_EEbRKNS_16reverse_iteratorIT_EERKNS3_IT0_EE, symObjAddr: 0x3FF8, symBinAddr: 0x100008158, symSize: 0x48 }
  - { offsetInCU: 0x17F65, offset: 0x17F65, size: 0x8, addend: 0x0, symName: __ZNSt3__112__to_addressB7v160006INS_16reverse_iteratorIP4gridEEvEENS_5decayIDTclsr19__to_address_helperIT_EE6__callclsr3stdE7declvalIRKS6_EEEEE4typeES8_, symObjAddr: 0x4068, symBinAddr: 0x1000081C8, symSize: 0x24 }
  - { offsetInCU: 0x17F9B, offset: 0x17F9B, size: 0x8, addend: 0x0, symName: __ZNSt3__110destroy_atB7v160006I4gridLi0EEEvPT_, symObjAddr: 0x40C4, symBinAddr: 0x100008224, symSize: 0x24 }
  - { offsetInCU: 0x17FD2, offset: 0x17FD2, size: 0x8, addend: 0x0, symName: __ZNSt3__112__destroy_atB7v160006I4gridLi0EEEvPT_, symObjAddr: 0x40E8, symBinAddr: 0x100008248, symSize: 0x10 }
  - { offsetInCU: 0x18032, offset: 0x18032, size: 0x8, addend: 0x0, symName: __ZNSt3__14prevB7v160006IP4gridEENS_9enable_ifIXsr25__is_cpp17_input_iteratorIT_EE5valueES4_E4typeES4_NS_15iterator_traitsIS4_E15difference_typeE, symObjAddr: 0x415C, symBinAddr: 0x1000082BC, symSize: 0x50 }
  - { offsetInCU: 0x18075, offset: 0x18075, size: 0x8, addend: 0x0, symName: __ZNSt3__121__convert_to_integralB7v160006El, symObjAddr: 0x41FC, symBinAddr: 0x10000835C, symSize: 0x14 }
  - { offsetInCU: 0x180A1, offset: 0x180A1, size: 0x8, addend: 0x0, symName: __ZNSt3__19__advanceB7v160006IP4gridEEvRT_NS_15iterator_traitsIS3_E15difference_typeENS_26random_access_iterator_tagE, symObjAddr: 0x4210, symBinAddr: 0x100008370, symSize: 0x28 }
  - { offsetInCU: 0x180EA, offset: 0x180EA, size: 0x8, addend: 0x0, symName: __ZNSt3__118__debug_db_erase_cB7v160006INS_6vectorI4gridNS_9allocatorIS2_EEEEEEvPT_, symObjAddr: 0x4424, symBinAddr: 0x100008584, symSize: 0x10 }
  - { offsetInCU: 0x1811B, offset: 0x1811B, size: 0x8, addend: 0x0, symName: __ZNSt3__1eqB7v160006IP4gridEEbRKNS_11__wrap_iterIT_EES7_, symObjAddr: 0x45F0, symBinAddr: 0x100008750, symSize: 0x48 }
  - { offsetInCU: 0x1815E, offset: 0x1815E, size: 0x8, addend: 0x0, symName: __ZNSt3__119__debug_db_insert_cB7v160006INS_6vectorINS1_I4gridNS_9allocatorIS2_EEEENS3_IS5_EEEEEEvPT_, symObjAddr: 0x4728, symBinAddr: 0x100008888, symSize: 0x10 }
  - { offsetInCU: 0x1818F, offset: 0x1818F, size: 0x8, addend: 0x0, symName: __ZNSt3__119__debug_db_insert_cB7v160006INS_12basic_stringIcNS_11char_traitsIcEENS_9allocatorIcEEEEEEvPT_, symObjAddr: 0x4890, symBinAddr: 0x1000089F0, symSize: 0x10 }
  - { offsetInCU: 0x181C0, offset: 0x181C0, size: 0x8, addend: 0x0, symName: __ZNSt3__112__to_addressB7v160006INS_6vectorI4gridNS_9allocatorIS2_EEEEEEPT_S7_, symObjAddr: 0x4C30, symBinAddr: 0x100008D90, symSize: 0x14 }
  - { offsetInCU: 0x1821A, offset: 0x1821A, size: 0x8, addend: 0x0, symName: __ZNSt3__112construct_atB7v160006INS_6vectorI4gridNS_9allocatorIS2_EEEEJS5_EPS5_EEPT_S8_DpOT0_, symObjAddr: 0x4CBC, symBinAddr: 0x100008E1C, symSize: 0x3C }
  - { offsetInCU: 0x1828A, offset: 0x1828A, size: 0x8, addend: 0x0, symName: __ZNSt3__115__debug_db_swapB7v160006INS_6vectorI4gridNS_9allocatorIS2_EEEEEEvPT_S7_, symObjAddr: 0x4E08, symBinAddr: 0x100008F68, symSize: 0x14 }
  - { offsetInCU: 0x182C9, offset: 0x182C9, size: 0x8, addend: 0x0, symName: __ZNSt3__13maxB7v160006ImEERKT_S3_S3_, symObjAddr: 0x516C, symBinAddr: 0x1000092CC, symSize: 0x2C }
  - { offsetInCU: 0x1830C, offset: 0x1830C, size: 0x8, addend: 0x0, symName: __ZNSt3__13maxB7v160006ImNS_6__lessImmEEEERKT_S5_S5_T0_, symObjAddr: 0x5280, symBinAddr: 0x1000093E0, symSize: 0x54 }
  - { offsetInCU: 0x18366, offset: 0x18366, size: 0x8, addend: 0x0, symName: __ZNSt3__119__allocate_at_leastB7v160006INS_9allocatorINS_6vectorI4gridNS1_IS3_EEEEEEEENS_19__allocation_resultINS_16allocator_traitsIT_E7pointerEEERS9_m, symObjAddr: 0x53F0, symBinAddr: 0x100009550, symSize: 0x40 }
  - { offsetInCU: 0x183A9, offset: 0x183A9, size: 0x8, addend: 0x0, symName: __ZNSt3__142__uninitialized_allocator_move_if_noexceptB7v160006INS_9allocatorINS_6vectorI4gridNS1_IS3_EEEEEENS_16reverse_iteratorIPS5_EES9_S9_EET2_RT_T0_T1_SA_, symObjAddr: 0x567C, symBinAddr: 0x1000097DC, symSize: 0x12C }
  - { offsetInCU: 0x18449, offset: 0x18449, size: 0x8, addend: 0x0, symName: __ZNSt3__14swapB7v160006IPNS_6vectorI4gridNS_9allocatorIS2_EEEEEENS_9enable_ifIXaasr21is_move_constructibleIT_EE5valuesr18is_move_assignableIS8_EE5valueEvE4typeERS8_SB_, symObjAddr: 0x57F4, symBinAddr: 0x100009954, symSize: 0x3C }
  - { offsetInCU: 0x1849A, offset: 0x1849A, size: 0x8, addend: 0x0, symName: __ZNSt3__125__debug_db_invalidate_allB7v160006INS_6vectorINS1_I4gridNS_9allocatorIS2_EEEENS3_IS5_EEEEEEvPT_, symObjAddr: 0x58F8, symBinAddr: 0x100009A58, symSize: 0x10 }
  - { offsetInCU: 0x184CB, offset: 0x184CB, size: 0x8, addend: 0x0, symName: __ZNSt3__122__make_exception_guardB7v160006INS_29_AllocatorDestroyRangeReverseINS_9allocatorINS_6vectorI4gridNS2_IS4_EEEEEENS_16reverse_iteratorIPS6_EEEEEENS_28__exception_guard_exceptionsIT_EESD_, symObjAddr: 0x5950, symBinAddr: 0x100009AB0, symSize: 0x4C }
  - { offsetInCU: 0x18501, offset: 0x18501, size: 0x8, addend: 0x0, symName: __ZNSt3__1neB7v160006IPNS_6vectorI4gridNS_9allocatorIS2_EEEES6_EEbRKNS_16reverse_iteratorIT_EERKNS7_IT0_EE, symObjAddr: 0x59E0, symBinAddr: 0x100009B40, symSize: 0x48 }
  - { offsetInCU: 0x1854D, offset: 0x1854D, size: 0x8, addend: 0x0, symName: __ZNSt3__112__to_addressB7v160006INS_16reverse_iteratorIPNS_6vectorI4gridNS_9allocatorIS3_EEEEEEvEENS_5decayIDTclsr19__to_address_helperIT_EE6__callclsr3stdE7declvalIRKSA_EEEEE4typeESC_, symObjAddr: 0x5A28, symBinAddr: 0x100009B88, symSize: 0x24 }
  - { offsetInCU: 0x185AC, offset: 0x185AC, size: 0x8, addend: 0x0, symName: __ZNSt3__14prevB7v160006IPNS_6vectorI4gridNS_9allocatorIS2_EEEEEENS_9enable_ifIXsr25__is_cpp17_input_iteratorIT_EE5valueES8_E4typeES8_NS_15iterator_traitsIS8_E15difference_typeE, symObjAddr: 0x5BDC, symBinAddr: 0x100009D3C, symSize: 0x50 }
  - { offsetInCU: 0x185EF, offset: 0x185EF, size: 0x8, addend: 0x0, symName: __ZNSt3__19__advanceB7v160006IPNS_6vectorI4gridNS_9allocatorIS2_EEEEEEvRT_NS_15iterator_traitsIS7_E15difference_typeENS_26random_access_iterator_tagE, symObjAddr: 0x5C7C, symBinAddr: 0x100009DDC, symSize: 0x30 }
  - { offsetInCU: 0x18638, offset: 0x18638, size: 0x8, addend: 0x0, symName: __ZNSt3__119__allocator_destroyB7v160006INS_9allocatorINS_6vectorI4gridNS1_IS3_EEEEEENS_16reverse_iteratorINS7_IPS5_EEEESA_EEvRT_T0_T1_, symObjAddr: 0x5DB0, symBinAddr: 0x100009F10, symSize: 0x70 }
  - { offsetInCU: 0x1869D, offset: 0x1869D, size: 0x8, addend: 0x0, symName: __ZNSt3__1neB7v160006INS_16reverse_iteratorIPNS_6vectorI4gridNS_9allocatorIS3_EEEEEES8_EEbRKNS1_IT_EERKNS1_IT0_EE, symObjAddr: 0x5E5C, symBinAddr: 0x100009FBC, symSize: 0x60 }
  - { offsetInCU: 0x186E9, offset: 0x186E9, size: 0x8, addend: 0x0, symName: __ZNSt3__112__to_addressB7v160006INS_16reverse_iteratorINS1_IPNS_6vectorI4gridNS_9allocatorIS3_EEEEEEEEvEENS_5decayIDTclsr19__to_address_helperIT_EE6__callclsr3stdE7declvalIRKSB_EEEEE4typeESD_, symObjAddr: 0x5EE4, symBinAddr: 0x10000A044, symSize: 0x24 }
  - { offsetInCU: 0x1871F, offset: 0x1871F, size: 0x8, addend: 0x0, symName: __ZNSt3__110destroy_atB7v160006INS_6vectorI4gridNS_9allocatorIS2_EEEELi0EEEvPT_, symObjAddr: 0x5F5C, symBinAddr: 0x10000A0BC, symSize: 0x24 }
  - { offsetInCU: 0x18756, offset: 0x18756, size: 0x8, addend: 0x0, symName: __ZNSt3__112__destroy_atB7v160006INS_6vectorI4gridNS_9allocatorIS2_EEEELi0EEEvPT_, symObjAddr: 0x5F80, symBinAddr: 0x10000A0E0, symSize: 0x24 }
  - { offsetInCU: 0x187B6, offset: 0x187B6, size: 0x8, addend: 0x0, symName: __ZNSt3__14prevB7v160006INS_16reverse_iteratorIPNS_6vectorI4gridNS_9allocatorIS3_EEEEEEEENS_9enable_ifIXsr25__is_cpp17_input_iteratorIT_EE5valueESA_E4typeESA_NS_15iterator_traitsISA_E15difference_typeE, symObjAddr: 0x6028, symBinAddr: 0x10000A188, symSize: 0x60 }
  - { offsetInCU: 0x187F9, offset: 0x187F9, size: 0x8, addend: 0x0, symName: __ZNSt3__19__advanceB7v160006INS_16reverse_iteratorIPNS_6vectorI4gridNS_9allocatorIS3_EEEEEEEEvRT_NS_15iterator_traitsIS9_E15difference_typeENS_26random_access_iterator_tagE, symObjAddr: 0x60D8, symBinAddr: 0x10000A238, symSize: 0x2C }
  - { offsetInCU: 0x18842, offset: 0x18842, size: 0x8, addend: 0x0, symName: __ZNSt3__1eqB7v160006IPcEEbRKNS_11__wrap_iterIT_EES6_, symObjAddr: 0x67B4, symBinAddr: 0x10000A914, symSize: 0x48 }
  - { offsetInCU: 0x18885, offset: 0x18885, size: 0x8, addend: 0x0, symName: __ZNSt3__14prevB7v160006INS_11__wrap_iterIPNS_6vectorI4gridNS_9allocatorIS3_EEEEEEEENS_9enable_ifIXsr25__is_cpp17_input_iteratorIT_EE5valueESA_E4typeESA_NS_15iterator_traitsISA_E15difference_typeE, symObjAddr: 0x6870, symBinAddr: 0x10000A9D0, symSize: 0x58 }
  - { offsetInCU: 0x188C8, offset: 0x188C8, size: 0x8, addend: 0x0, symName: __ZNSt3__19__advanceB7v160006INS_11__wrap_iterIPNS_6vectorI4gridNS_9allocatorIS3_EEEEEEEEvRT_NS_15iterator_traitsIS9_E15difference_typeENS_26random_access_iterator_tagE, symObjAddr: 0x6940, symBinAddr: 0x10000AAA0, symSize: 0x2C }
  - { offsetInCU: 0x18911, offset: 0x18911, size: 0x8, addend: 0x0, symName: __ZNSt3__112construct_atB7v160006I4gridJS1_EPS1_EEPT_S4_DpOT0_, symObjAddr: 0x6B34, symBinAddr: 0x10000AC94, symSize: 0x2C }
  - { offsetInCU: 0x18981, offset: 0x18981, size: 0x8, addend: 0x0, symName: __ZNSt3__142__uninitialized_allocator_move_if_noexceptB7v160006INS_9allocatorI4gridEENS_16reverse_iteratorIPS2_EES6_S2_vEET1_RT_T0_SA_S7_, symObjAddr: 0x6FC8, symBinAddr: 0x10000B128, symSize: 0x78 }
  - { offsetInCU: 0x189FE, offset: 0x189FE, size: 0x8, addend: 0x0, symName: __ZNSt3__14swapB7v160006IP4gridEENS_9enable_ifIXaasr21is_move_constructibleIT_EE5valuesr18is_move_assignableIS4_EE5valueEvE4typeERS4_S7_, symObjAddr: 0x7040, symBinAddr: 0x10000B1A0, symSize: 0x3C }
  - { offsetInCU: 0x18A4F, offset: 0x18A4F, size: 0x8, addend: 0x0, symName: __ZNSt3__125__debug_db_invalidate_allB7v160006INS_6vectorI4gridNS_9allocatorIS2_EEEEEEvPT_, symObjAddr: 0x707C, symBinAddr: 0x10000B1DC, symSize: 0x10 }
  - { offsetInCU: 0x18A80, offset: 0x18A80, size: 0x8, addend: 0x0, symName: __ZNSt3__14moveB7v160006INS_16reverse_iteratorIP4gridEES4_EET0_T_S6_S5_, symObjAddr: 0x708C, symBinAddr: 0x10000B1EC, symSize: 0x78 }
  - { offsetInCU: 0x18ADA, offset: 0x18ADA, size: 0x8, addend: 0x0, symName: __ZNSt3__16__moveB7v160006INS_17_ClassicAlgPolicyENS_16reverse_iteratorIP4gridEES5_S5_EENS_4pairIT0_T2_EES7_T1_S8_, symObjAddr: 0x7104, symBinAddr: 0x10000B264, symSize: 0x64 }
  - { offsetInCU: 0x18B46, offset: 0x18B46, size: 0x8, addend: 0x0, symName: __ZNSt3__123__dispatch_copy_or_moveB7v160006INS_17_ClassicAlgPolicyENS_11__move_loopIS1_EENS_14__move_trivialENS_16reverse_iteratorIP4gridEES8_S8_EENS_4pairIT2_T4_EESA_T3_SB_, symObjAddr: 0x7168, symBinAddr: 0x10000B2C8, symSize: 0x64 }
  - { offsetInCU: 0x18BC4, offset: 0x18BC4, size: 0x8, addend: 0x0, symName: __ZNSt3__121__unwrap_and_dispatchB7v160006INS_10__overloadINS_11__move_loopINS_17_ClassicAlgPolicyEEENS_14__move_trivialEEENS_16reverse_iteratorIP4gridEESA_SA_Li0EEENS_4pairIT0_T2_EESC_T1_SD_, symObjAddr: 0x71CC, symBinAddr: 0x10000B32C, symSize: 0x12C }
  - { offsetInCU: 0x18C54, offset: 0x18C54, size: 0x8, addend: 0x0, symName: __ZNSt3__114__unwrap_rangeB7v160006INS_16reverse_iteratorIP4gridEES4_EEDaT_T0_, symObjAddr: 0x72F8, symBinAddr: 0x10000B458, symSize: 0x4C }
  - { offsetInCU: 0x18E0E, offset: 0x18E0E, size: 0x8, addend: 0x0, symName: __ZNSt3__113__unwrap_iterB7v160006INS_16reverse_iteratorIP4gridEENS_18__unwrap_iter_implIS4_Lb0EEELi0EEEDTclsrT0_8__unwrapclsr3stdE7declvalIT_EEEES8_, symObjAddr: 0x73E4, symBinAddr: 0x10000B544, symSize: 0x44 }
  - { offsetInCU: 0x18E52, offset: 0x18E52, size: 0x8, addend: 0x0, symName: __ZNSt3__19make_pairB7v160006INS_16reverse_iteratorIP4gridEES4_EENS_4pairINS_18__unwrap_ref_decayIT_E4typeENS6_IT0_E4typeEEEOS7_OSA_, symObjAddr: 0x7428, symBinAddr: 0x10000B588, symSize: 0x38 }
  - { offsetInCU: 0x18EA1, offset: 0x18EA1, size: 0x8, addend: 0x0, symName: __ZNSt3__114__rewrap_rangeB7v160006INS_16reverse_iteratorIP4gridEES4_S4_EET0_S5_T1_, symObjAddr: 0x7460, symBinAddr: 0x10000B5C0, symSize: 0x5C }
  - { offsetInCU: 0x18EF6, offset: 0x18EF6, size: 0x8, addend: 0x0, symName: __ZNSt3__113__rewrap_iterB7v160006INS_16reverse_iteratorIP4gridEES4_NS_18__unwrap_iter_implIS4_Lb0EEEEET_S7_T0_, symObjAddr: 0x74BC, symBinAddr: 0x10000B61C, symSize: 0x74 }
  - { offsetInCU: 0x190A5, offset: 0x190A5, size: 0x8, addend: 0x0, symName: __ZNSt3__112construct_atB7v160006IiJRKiEPiEEPT_S5_DpOT0_, symObjAddr: 0x7BB4, symBinAddr: 0x10000BD14, symSize: 0x2C }
  - { offsetInCU: 0x19115, offset: 0x19115, size: 0x8, addend: 0x0, symName: __ZNSt3__119__allocate_at_leastB7v160006INS_9allocatorIiEEEENS_19__allocation_resultINS_16allocator_traitsIT_E7pointerEEERS5_m, symObjAddr: 0x8050, symBinAddr: 0x10000C1B0, symSize: 0x40 }
  - { offsetInCU: 0x19158, offset: 0x19158, size: 0x8, addend: 0x0, symName: __ZNSt3__142__uninitialized_allocator_move_if_noexceptB7v160006INS_9allocatorIiEENS_16reverse_iteratorIPiEES5_ivEET1_RT_T0_S9_S6_, symObjAddr: 0x8220, symBinAddr: 0x10000C380, symSize: 0x78 }
  - { offsetInCU: 0x191D5, offset: 0x191D5, size: 0x8, addend: 0x0, symName: __ZNSt3__14swapB7v160006IPiEENS_9enable_ifIXaasr21is_move_constructibleIT_EE5valuesr18is_move_assignableIS3_EE5valueEvE4typeERS3_S6_, symObjAddr: 0x82E4, symBinAddr: 0x10000C444, symSize: 0x3C }
  - { offsetInCU: 0x19226, offset: 0x19226, size: 0x8, addend: 0x0, symName: __ZNSt3__125__debug_db_invalidate_allB7v160006INS_6vectorIiNS_9allocatorIiEEEEEEvPT_, symObjAddr: 0x83CC, symBinAddr: 0x10000C52C, symSize: 0x10 }
  - { offsetInCU: 0x19257, offset: 0x19257, size: 0x8, addend: 0x0, symName: __ZNSt3__14moveB7v160006INS_16reverse_iteratorIPiEES3_EET0_T_S5_S4_, symObjAddr: 0x83DC, symBinAddr: 0x10000C53C, symSize: 0x78 }
  - { offsetInCU: 0x192B1, offset: 0x192B1, size: 0x8, addend: 0x0, symName: __ZNSt3__16__moveB7v160006INS_17_ClassicAlgPolicyENS_16reverse_iteratorIPiEES4_S4_EENS_4pairIT0_T2_EES6_T1_S7_, symObjAddr: 0x8454, symBinAddr: 0x10000C5B4, symSize: 0x64 }
  - { offsetInCU: 0x1931D, offset: 0x1931D, size: 0x8, addend: 0x0, symName: __ZNSt3__123__dispatch_copy_or_moveB7v160006INS_17_ClassicAlgPolicyENS_11__move_loopIS1_EENS_14__move_trivialENS_16reverse_iteratorIPiEES7_S7_EENS_4pairIT2_T4_EES9_T3_SA_, symObjAddr: 0x84B8, symBinAddr: 0x10000C618, symSize: 0x64 }
  - { offsetInCU: 0x1939B, offset: 0x1939B, size: 0x8, addend: 0x0, symName: __ZNSt3__121__unwrap_and_dispatchB7v160006INS_10__overloadINS_11__move_loopINS_17_ClassicAlgPolicyEEENS_14__move_trivialEEENS_16reverse_iteratorIPiEES9_S9_Li0EEENS_4pairIT0_T2_EESB_T1_SC_, symObjAddr: 0x851C, symBinAddr: 0x10000C67C, symSize: 0x12C }
  - { offsetInCU: 0x1942B, offset: 0x1942B, size: 0x8, addend: 0x0, symName: __ZNSt3__114__unwrap_rangeB7v160006INS_16reverse_iteratorIPiEES3_EEDaT_T0_, symObjAddr: 0x8648, symBinAddr: 0x10000C7A8, symSize: 0x4C }
  - { offsetInCU: 0x1954B, offset: 0x1954B, size: 0x8, addend: 0x0, symName: __ZNSt3__113__unwrap_iterB7v160006INS_16reverse_iteratorIPiEENS_18__unwrap_iter_implIS3_Lb0EEELi0EEEDTclsrT0_8__unwrapclsr3stdE7declvalIT_EEEES7_, symObjAddr: 0x8734, symBinAddr: 0x10000C894, symSize: 0x44 }
  - { offsetInCU: 0x1958F, offset: 0x1958F, size: 0x8, addend: 0x0, symName: __ZNSt3__19make_pairB7v160006INS_16reverse_iteratorIPiEES3_EENS_4pairINS_18__unwrap_ref_decayIT_E4typeENS5_IT0_E4typeEEEOS6_OS9_, symObjAddr: 0x8778, symBinAddr: 0x10000C8D8, symSize: 0x38 }
  - { offsetInCU: 0x195DE, offset: 0x195DE, size: 0x8, addend: 0x0, symName: __ZNSt3__114__rewrap_rangeB7v160006INS_16reverse_iteratorIPiEES3_S3_EET0_S4_T1_, symObjAddr: 0x87B0, symBinAddr: 0x10000C910, symSize: 0x5C }
  - { offsetInCU: 0x19633, offset: 0x19633, size: 0x8, addend: 0x0, symName: __ZNSt3__113__rewrap_iterB7v160006INS_16reverse_iteratorIPiEES3_NS_18__unwrap_iter_implIS3_Lb0EEEEET_S6_T0_, symObjAddr: 0x880C, symBinAddr: 0x10000C96C, symSize: 0x74 }
  - { offsetInCU: 0x196D8, offset: 0x196D8, size: 0x8, addend: 0x0, symName: __ZNSt3__1neB7v160006IPiS1_EEbRKNS_16reverse_iteratorIT_EERKNS2_IT0_EE, symObjAddr: 0x8974, symBinAddr: 0x10000CAD4, symSize: 0x48 }
  - { offsetInCU: 0x19790, offset: 0x19790, size: 0x8, addend: 0x0, symName: __ZNSt3__118__debug_db_erase_cB7v160006INS_6vectorINS1_I4gridNS_9allocatorIS2_EEEENS3_IS5_EEEEEEvPT_, symObjAddr: 0x8E24, symBinAddr: 0x10000CF84, symSize: 0x10 }
  - { offsetInCU: 0x197C1, offset: 0x197C1, size: 0x8, addend: 0x0, symName: __ZNSt3__116__pad_and_outputB7v160006IcNS_11char_traitsIcEEEENS_19ostreambuf_iteratorIT_T0_EES6_PKS4_S8_S8_RNS_8ios_baseES4_, symObjAddr: 0x917C, symBinAddr: 0x10000D2DC, symSize: 0x240 }
  - { offsetInCU: 0x19890, offset: 0x19890, size: 0x8, addend: 0x0, symName: __ZNSt3__112__to_addressB7v160006IcEEPT_S2_, symObjAddr: 0x95F4, symBinAddr: 0x10000D754, symSize: 0x14 }
  - { offsetInCU: 0x198C5, offset: 0x198C5, size: 0x8, addend: 0x0, symName: __ZNSt3__19use_facetB7v160006INS_5ctypeIcEEEERKT_RKNS_6localeE, symObjAddr: 0x974C, symBinAddr: 0x10000D8AC, symSize: 0x2C }
  - { offsetInCU: 0x19D94, offset: 0x19D94, size: 0x8, addend: 0x0, symName: __ZNSt3__118__constexpr_strlenB7v160006EPKc, symObjAddr: 0x9818, symBinAddr: 0x10000D978, symSize: 0x24 }
  - { offsetInCU: 0x19DC0, offset: 0x19DC0, size: 0x8, addend: 0x0, symName: __ZNSt3__119__debug_db_insert_cB7v160006INS_13unordered_mapIiNS_6vectorINS2_I4gridNS_9allocatorIS3_EEEENS4_IS6_EEEENS_4hashIiEENS_8equal_toIiEENS4_INS_4pairIKiS8_EEEEEEEEvPT_, symObjAddr: 0x98A4, symBinAddr: 0x10000DA04, symSize: 0x10 }
  - { offsetInCU: 0x19DF1, offset: 0x19DF1, size: 0x8, addend: 0x0, symName: __ZNSt3__118__debug_db_erase_cB7v160006INS_12__hash_tableINS_17__hash_value_typeIiNS_6vectorINS3_I4gridNS_9allocatorIS4_EEEENS5_IS7_EEEEEENS_22__unordered_map_hasherIiSA_NS_4hashIiEENS_8equal_toIiEELb1EEENS_21__unordered_map_equalIiSA_SF_SD_Lb1EEENS5_ISA_EEEEEEvPT_, symObjAddr: 0xA024, symBinAddr: 0x10000E184, symSize: 0x10 }
  - { offsetInCU: 0x19EE2, offset: 0x19EE2, size: 0x8, addend: 0x0, symName: __ZNSt3__110destroy_atB7v160006INS_4pairIKiNS_6vectorINS3_I4gridNS_9allocatorIS4_EEEENS5_IS7_EEEEEELi0EEEvPT_, symObjAddr: 0xA178, symBinAddr: 0x10000E2D8, symSize: 0x24 }
  - { offsetInCU: 0x19F19, offset: 0x19F19, size: 0x8, addend: 0x0, symName: __ZNSt3__112__destroy_atB7v160006INS_4pairIKiNS_6vectorINS3_I4gridNS_9allocatorIS4_EEEENS5_IS7_EEEEEELi0EEEvPT_, symObjAddr: 0xA19C, symBinAddr: 0x10000E2FC, symSize: 0x24 }
  - { offsetInCU: 0x19F50, offset: 0x19F50, size: 0x8, addend: 0x0, symName: __ZNSt3__17launderB7v160006INS_4pairIKiNS_6vectorINS3_I4gridNS_9allocatorIS4_EEEENS5_IS7_EEEEEEEEPT_SC_, symObjAddr: 0xA240, symBinAddr: 0x10000E3A0, symSize: 0x24 }
  - { offsetInCU: 0x19F87, offset: 0x19F87, size: 0x8, addend: 0x0, symName: __ZNSt3__19__launderB7v160006INS_4pairIKiNS_6vectorINS3_I4gridNS_9allocatorIS4_EEEENS5_IS7_EEEEEEEEPT_SC_, symObjAddr: 0xA264, symBinAddr: 0x10000E3C4, symSize: 0x14 }
  - { offsetInCU: 0x19FBE, offset: 0x19FBE, size: 0x8, addend: 0x0, symName: __ZNSt3__17getlineB7v160006IcNS_11char_traitsIcEENS_9allocatorIcEEEERNS_13basic_istreamIT_T0_EES9_RNS_12basic_stringIS6_S7_T1_EES6_, symObjAddr: 0xA698, symBinAddr: 0x10000E7F8, symSize: 0x238 }
  - { offsetInCU: 0x1A07C, offset: 0x1A07C, size: 0x8, addend: 0x0, symName: __ZNSt3__125__debug_db_invalidate_allB7v160006INS_12basic_stringIcNS_11char_traitsIcEENS_9allocatorIcEEEEEEvPT_, symObjAddr: 0xAB60, symBinAddr: 0x10000ECC0, symSize: 0x10 }
  - { offsetInCU: 0x1A7BB, offset: 0x1A7BB, size: 0x8, addend: 0x0, symName: __ZSt28__throw_bad_array_new_lengthB7v160006v, symObjAddr: 0x38DC, symBinAddr: 0x100007A3C, symSize: 0x34 }
  - { offsetInCU: 0x1A984, offset: 0x1A984, size: 0x8, addend: 0x0, symName: _south_bound, symObjAddr: 0x909A0, symBinAddr: 0x100014018, symSize: 0x0 }
  - { offsetInCU: 0x1A999, offset: 0x1A999, size: 0x8, addend: 0x0, symName: _west_bound, symObjAddr: 0x909B8, symBinAddr: 0x100014030, symSize: 0x0 }
  - { offsetInCU: 0x1A9AE, offset: 0x1A9AE, size: 0x8, addend: 0x0, symName: _east_bound, symObjAddr: 0x909D0, symBinAddr: 0x100014048, symSize: 0x0 }
  - { offsetInCU: 0x1A9D7, offset: 0x1A9D7, size: 0x8, addend: 0x0, symName: _cache, symObjAddr: 0x909E8, symBinAddr: 0x100014060, symSize: 0x0 }
  - { offsetInCU: 0x1BE2D, offset: 0x1BE2D, size: 0x8, addend: 0x0, symName: __ZNSt3__16vectorINS0_I4gridNS_9allocatorIS1_EEEENS2_IS4_EEE26__swap_out_circular_bufferERNS_14__split_bufferIS4_RS5_EE, symObjAddr: 0x4F6C, symBinAddr: 0x1000090CC, symSize: 0x118 }
  - { offsetInCU: 0x1BEC0, offset: 0x1BEC0, size: 0x8, addend: 0x0, symName: __ZNSt3__16vectorI4gridNS_9allocatorIS1_EEE26__swap_out_circular_bufferERNS_14__split_bufferIS1_RS3_EE, symObjAddr: 0x6C58, symBinAddr: 0x10000ADB8, symSize: 0x118 }
  - { offsetInCU: 0x1BF03, offset: 0x1BF03, size: 0x8, addend: 0x0, symName: __ZNSt3__16vectorIiNS_9allocatorIiEEE26__swap_out_circular_bufferERNS_14__split_bufferIiRS2_EE, symObjAddr: 0x7CF8, symBinAddr: 0x10000BE58, symSize: 0x118 }
  - { offsetInCU: 0x1DF23, offset: 0x1DF23, size: 0x8, addend: 0x0, symName: __ZNSt3__16vectorIiNS_9allocatorIiEEED1B7v160006Ev, symObjAddr: 0x0, symBinAddr: 0x100004160, symSize: 0x2C }
  - { offsetInCU: 0x1DF4C, offset: 0x1DF4C, size: 0x8, addend: 0x0, symName: __Z11debug_printRNSt3__16vectorINS0_I4gridNS_9allocatorIS1_EEEENS2_IS4_EEEE, symObjAddr: 0x2C, symBinAddr: 0x10000418C, symSize: 0x12C }
  - { offsetInCU: 0x1DFFF, offset: 0x1DFFF, size: 0x8, addend: 0x0, symName: __ZNSt3__16vectorINS0_I4gridNS_9allocatorIS1_EEEENS2_IS4_EEE5beginB7v160006Ev, symObjAddr: 0x158, symBinAddr: 0x1000042B8, symSize: 0x30 }
  - { offsetInCU: 0x1E027, offset: 0x1E027, size: 0x8, addend: 0x0, symName: __ZNSt3__16vectorINS0_I4gridNS_9allocatorIS1_EEEENS2_IS4_EEE3endB7v160006Ev, symObjAddr: 0x188, symBinAddr: 0x1000042E8, symSize: 0x30 }
  - { offsetInCU: 0x1E04F, offset: 0x1E04F, size: 0x8, addend: 0x0, symName: __ZNKSt3__111__wrap_iterIPNS_6vectorI4gridNS_9allocatorIS2_EEEEEdeB7v160006Ev, symObjAddr: 0x1EC, symBinAddr: 0x10000434C, symSize: 0x18 }
  - { offsetInCU: 0x1E075, offset: 0x1E075, size: 0x8, addend: 0x0, symName: __ZNSt3__16vectorI4gridNS_9allocatorIS1_EEEC1ERKS4_, symObjAddr: 0x204, symBinAddr: 0x100004364, symSize: 0x34 }
  - { offsetInCU: 0x1E0B0, offset: 0x1E0B0, size: 0x8, addend: 0x0, symName: __ZNSt3__16vectorI4gridNS_9allocatorIS1_EEE5beginB7v160006Ev, symObjAddr: 0x238, symBinAddr: 0x100004398, symSize: 0x30 }
  - { offsetInCU: 0x1E0D8, offset: 0x1E0D8, size: 0x8, addend: 0x0, symName: __ZNSt3__16vectorI4gridNS_9allocatorIS1_EEE3endB7v160006Ev, symObjAddr: 0x268, symBinAddr: 0x1000043C8, symSize: 0x30 }
  - { offsetInCU: 0x1E100, offset: 0x1E100, size: 0x8, addend: 0x0, symName: __ZNKSt3__111__wrap_iterIP4gridEdeB7v160006Ev, symObjAddr: 0x2CC, symBinAddr: 0x10000442C, symSize: 0x18 }
  - { offsetInCU: 0x1E126, offset: 0x1E126, size: 0x8, addend: 0x0, symName: __ZNSt3__111__wrap_iterIP4gridEppB7v160006Ev, symObjAddr: 0x318, symBinAddr: 0x100004478, symSize: 0x20 }
  - { offsetInCU: 0x1E14C, offset: 0x1E14C, size: 0x8, addend: 0x0, symName: __ZNSt3__16vectorI4gridNS_9allocatorIS1_EEED1B7v160006Ev, symObjAddr: 0x380, symBinAddr: 0x1000044E0, symSize: 0x2C }
  - { offsetInCU: 0x1E176, offset: 0x1E176, size: 0x8, addend: 0x0, symName: __ZNSt3__111__wrap_iterIPNS_6vectorI4gridNS_9allocatorIS2_EEEEEppB7v160006Ev, symObjAddr: 0x3AC, symBinAddr: 0x10000450C, symSize: 0x20 }
  - { offsetInCU: 0x1E19B, offset: 0x1E19B, size: 0x8, addend: 0x0, symName: __Z16calculate_weightRNSt3__16vectorINS0_I4gridNS_9allocatorIS1_EEEENS2_IS4_EEEE, symObjAddr: 0x3CC, symBinAddr: 0x10000452C, symSize: 0xF4 }
  - { offsetInCU: 0x1E21C, offset: 0x1E21C, size: 0x8, addend: 0x0, symName: __ZNKSt3__16vectorINS0_I4gridNS_9allocatorIS1_EEEENS2_IS4_EEE4sizeB7v160006Ev, symObjAddr: 0x4C0, symBinAddr: 0x100004620, symSize: 0x28 }
  - { offsetInCU: 0x1E242, offset: 0x1E242, size: 0x8, addend: 0x0, symName: __ZNSt3__16vectorINS0_I4gridNS_9allocatorIS1_EEEENS2_IS4_EEEixB7v160006Em, symObjAddr: 0x4E8, symBinAddr: 0x100004648, symSize: 0x2C }
  - { offsetInCU: 0x1E279, offset: 0x1E279, size: 0x8, addend: 0x0, symName: __ZNKSt3__16vectorI4gridNS_9allocatorIS1_EEE4sizeB7v160006Ev, symObjAddr: 0x514, symBinAddr: 0x100004674, symSize: 0x28 }
  - { offsetInCU: 0x1E29F, offset: 0x1E29F, size: 0x8, addend: 0x0, symName: __ZNSt3__16vectorI4gridNS_9allocatorIS1_EEEixB7v160006Em, symObjAddr: 0x53C, symBinAddr: 0x10000469C, symSize: 0x24 }
  - { offsetInCU: 0x1E2D5, offset: 0x1E2D5, size: 0x8, addend: 0x0, symName: __Z10roll_northRNSt3__16vectorINS0_I4gridNS_9allocatorIS1_EEEENS2_IS4_EEEE, symObjAddr: 0x560, symBinAddr: 0x1000046C0, symSize: 0x444 }
  - { offsetInCU: 0x1E336, offset: 0x1E336, size: 0x8, addend: 0x0, symName: __ZNSt3__16vectorIiNS_9allocatorIiEEEixB7v160006Em, symObjAddr: 0x9A4, symBinAddr: 0x100004B04, symSize: 0x24 }
  - { offsetInCU: 0x1E36D, offset: 0x1E36D, size: 0x8, addend: 0x0, symName: __Z10break_herev, symObjAddr: 0x9C8, symBinAddr: 0x100004B28, symSize: 0x4 }
  - { offsetInCU: 0x1E386, offset: 0x1E386, size: 0x8, addend: 0x0, symName: __Z13manually_rollRNSt3__16vectorINS0_I4gridNS_9allocatorIS1_EEEENS2_IS4_EEEE, symObjAddr: 0x9CC, symBinAddr: 0x100004B2C, symSize: 0x1058 }
  - { offsetInCU: 0x1E48F, offset: 0x1E48F, size: 0x8, addend: 0x0, symName: __ZNSt3__113unordered_mapIiNS_6vectorINS1_I4gridNS_9allocatorIS2_EEEENS3_IS5_EEEENS_4hashIiEENS_8equal_toIiEENS3_INS_4pairIKiS7_EEEEEC1B7v160006Ev, symObjAddr: 0x1A24, symBinAddr: 0x100005B84, symSize: 0x2C }
  - { offsetInCU: 0x1E4B9, offset: 0x1E4B9, size: 0x8, addend: 0x0, symName: __ZNSt3__113unordered_mapIiNS_6vectorINS1_I4gridNS_9allocatorIS2_EEEENS3_IS5_EEEENS_4hashIiEENS_8equal_toIiEENS3_INS_4pairIKiS7_EEEEED1B7v160006Ev, symObjAddr: 0x1A50, symBinAddr: 0x100005BB0, symSize: 0x2C }
  - { offsetInCU: 0x1E4E3, offset: 0x1E4E3, size: 0x8, addend: 0x0, symName: _main, symObjAddr: 0x1A7C, symBinAddr: 0x100005BDC, symSize: 0x80C }
  - { offsetInCU: 0x1E6D6, offset: 0x1E6D6, size: 0x8, addend: 0x0, symName: __ZNSt3__113basic_ostreamIcNS_11char_traitsIcEEElsB7v160006EPFRS3_S4_E, symObjAddr: 0x2288, symBinAddr: 0x1000063E8, symSize: 0x2C }
  - { offsetInCU: 0x1E70A, offset: 0x1E70A, size: 0x8, addend: 0x0, symName: __ZNSt3__114basic_ifstreamIcNS_11char_traitsIcEEEC1EPKcj, symObjAddr: 0x230C, symBinAddr: 0x10000646C, symSize: 0x16C }
  - { offsetInCU: 0x1E754, offset: 0x1E754, size: 0x8, addend: 0x0, symName: __ZNKSt3__114basic_ifstreamIcNS_11char_traitsIcEEE7is_openEv, symObjAddr: 0x2478, symBinAddr: 0x1000065D8, symSize: 0x2C }
  - { offsetInCU: 0x1E77C, offset: 0x1E77C, size: 0x8, addend: 0x0, symName: __ZNSt3__16vectorINS0_I4gridNS_9allocatorIS1_EEEENS2_IS4_EEEC1B7v160006Ev, symObjAddr: 0x24A4, symBinAddr: 0x100006604, symSize: 0x2C }
  - { offsetInCU: 0x1E7A6, offset: 0x1E7A6, size: 0x8, addend: 0x0, symName: __ZNSt3__112basic_stringIcNS_11char_traitsIcEENS_9allocatorIcEEEC1B7v160006Ev, symObjAddr: 0x24D0, symBinAddr: 0x100006630, symSize: 0x2C }
  - { offsetInCU: 0x1E7D0, offset: 0x1E7D0, size: 0x8, addend: 0x0, symName: __ZNKSt3__19basic_iosIcNS_11char_traitsIcEEEcvbB7v160006Ev, symObjAddr: 0x2558, symBinAddr: 0x1000066B8, symSize: 0x2C }
  - { offsetInCU: 0x1E7F6, offset: 0x1E7F6, size: 0x8, addend: 0x0, symName: __ZNSt3__16vectorINS0_I4gridNS_9allocatorIS1_EEEENS2_IS4_EEE9push_backB7v160006EOS4_, symObjAddr: 0x2584, symBinAddr: 0x1000066E4, symSize: 0x6C }
  - { offsetInCU: 0x1E82D, offset: 0x1E82D, size: 0x8, addend: 0x0, symName: __ZNSt3__16vectorI4gridNS_9allocatorIS1_EEEC1B7v160006Ev, symObjAddr: 0x25F0, symBinAddr: 0x100006750, symSize: 0x2C }
  - { offsetInCU: 0x1E857, offset: 0x1E857, size: 0x8, addend: 0x0, symName: __ZNSt3__112basic_stringIcNS_11char_traitsIcEENS_9allocatorIcEEE5beginB7v160006Ev, symObjAddr: 0x261C, symBinAddr: 0x10000677C, symSize: 0x4C }
  - { offsetInCU: 0x1E87D, offset: 0x1E87D, size: 0x8, addend: 0x0, symName: __ZNSt3__112basic_stringIcNS_11char_traitsIcEENS_9allocatorIcEEE3endB7v160006Ev, symObjAddr: 0x2668, symBinAddr: 0x1000067C8, symSize: 0x54 }
  - { offsetInCU: 0x1E8A3, offset: 0x1E8A3, size: 0x8, addend: 0x0, symName: __ZNKSt3__111__wrap_iterIPcEdeB7v160006Ev, symObjAddr: 0x26F0, symBinAddr: 0x100006850, symSize: 0x18 }
  - { offsetInCU: 0x1E8C9, offset: 0x1E8C9, size: 0x8, addend: 0x0, symName: __ZNSt3__16vectorINS0_I4gridNS_9allocatorIS1_EEEENS2_IS4_EEE6rbeginB7v160006Ev, symObjAddr: 0x2708, symBinAddr: 0x100006868, symSize: 0x44 }
  - { offsetInCU: 0x1E8EF, offset: 0x1E8EF, size: 0x8, addend: 0x0, symName: __ZNKSt3__116reverse_iteratorINS_11__wrap_iterIPNS_6vectorI4gridNS_9allocatorIS3_EEEEEEEptB7v160006Ev, symObjAddr: 0x274C, symBinAddr: 0x1000068AC, symSize: 0x44 }
  - { offsetInCU: 0x1E915, offset: 0x1E915, size: 0x8, addend: 0x0, symName: __ZNSt3__16vectorI4gridNS_9allocatorIS1_EEE9push_backB7v160006EOS1_, symObjAddr: 0x2790, symBinAddr: 0x1000068F0, symSize: 0x6C }
  - { offsetInCU: 0x1E94C, offset: 0x1E94C, size: 0x8, addend: 0x0, symName: __ZNSt3__111__wrap_iterIPcEppB7v160006Ev, symObjAddr: 0x27FC, symBinAddr: 0x10000695C, symSize: 0x20 }
  - { offsetInCU: 0x1E972, offset: 0x1E972, size: 0x8, addend: 0x0, symName: __ZNSt3__16vectorIiNS_9allocatorIiEEE9push_backB7v160006ERKi, symObjAddr: 0x281C, symBinAddr: 0x10000697C, symSize: 0x6C }
  - { offsetInCU: 0x1E9A9, offset: 0x1E9A9, size: 0x8, addend: 0x0, symName: __ZNSt3__16vectorINS0_I4gridNS_9allocatorIS1_EEEENS2_IS4_EEED1B7v160006Ev, symObjAddr: 0x2888, symBinAddr: 0x1000069E8, symSize: 0x2C }
  - { offsetInCU: 0x1E9D8, offset: 0x1E9D8, size: 0x8, addend: 0x0, symName: __ZNSt3__114basic_ifstreamIcNS_11char_traitsIcEEED1Ev, symObjAddr: 0x28B4, symBinAddr: 0x100006A14, symSize: 0x40 }
  - { offsetInCU: 0x1EA05, offset: 0x1EA05, size: 0x8, addend: 0x0, symName: __ZNSt3__16vectorIiNS_9allocatorIiEEED2B7v160006Ev, symObjAddr: 0x28F4, symBinAddr: 0x100006A54, symSize: 0x44 }
  - { offsetInCU: 0x1EA2F, offset: 0x1EA2F, size: 0x8, addend: 0x0, symName: __ZNSt3__16vectorIiNS_9allocatorIiEEE16__destroy_vectorC1ERS3_, symObjAddr: 0x2938, symBinAddr: 0x100006A98, symSize: 0x34 }
  - { offsetInCU: 0x1EA68, offset: 0x1EA68, size: 0x8, addend: 0x0, symName: __ZNSt3__16vectorIiNS_9allocatorIiEEE16__destroy_vectorclB7v160006Ev, symObjAddr: 0x2978, symBinAddr: 0x100006AD8, symSize: 0x9C }
  - { offsetInCU: 0x1EA8E, offset: 0x1EA8E, size: 0x8, addend: 0x0, symName: __ZNSt3__16vectorIiNS_9allocatorIiEEE16__destroy_vectorC2ERS3_, symObjAddr: 0x2A14, symBinAddr: 0x100006B74, symSize: 0x20 }
  - { offsetInCU: 0x1EAC7, offset: 0x1EAC7, size: 0x8, addend: 0x0, symName: __ZNKSt3__16vectorIiNS_9allocatorIiEEE17__annotate_deleteB7v160006Ev, symObjAddr: 0x2A34, symBinAddr: 0x100006B94, symSize: 0xB8 }
  - { offsetInCU: 0x1EAED, offset: 0x1EAED, size: 0x8, addend: 0x0, symName: __ZNSt3__16vectorIiNS_9allocatorIiEEE7__clearB7v160006Ev, symObjAddr: 0x2AFC, symBinAddr: 0x100006C5C, symSize: 0x28 }
  - { offsetInCU: 0x1EB13, offset: 0x1EB13, size: 0x8, addend: 0x0, symName: __ZNSt3__116allocator_traitsINS_9allocatorIiEEE10deallocateB7v160006ERS2_Pim, symObjAddr: 0x2B24, symBinAddr: 0x100006C84, symSize: 0x34 }
  - { offsetInCU: 0x1EB55, offset: 0x1EB55, size: 0x8, addend: 0x0, symName: __ZNSt3__16vectorIiNS_9allocatorIiEEE7__allocB7v160006Ev, symObjAddr: 0x2B58, symBinAddr: 0x100006CB8, symSize: 0x28 }
  - { offsetInCU: 0x1EB7B, offset: 0x1EB7B, size: 0x8, addend: 0x0, symName: __ZNKSt3__16vectorIiNS_9allocatorIiEEE8capacityB7v160006Ev, symObjAddr: 0x2B80, symBinAddr: 0x100006CE0, symSize: 0x40 }
  - { offsetInCU: 0x1EBA1, offset: 0x1EBA1, size: 0x8, addend: 0x0, symName: __ZNKSt3__16vectorIiNS_9allocatorIiEEE31__annotate_contiguous_containerB7v160006EPKvS5_S5_S5_, symObjAddr: 0x2BC0, symBinAddr: 0x100006D20, symSize: 0x20 }
  - { offsetInCU: 0x1EBF3, offset: 0x1EBF3, size: 0x8, addend: 0x0, symName: __ZNKSt3__16vectorIiNS_9allocatorIiEEE4dataB7v160006Ev, symObjAddr: 0x2BE0, symBinAddr: 0x100006D40, symSize: 0x28 }
  - { offsetInCU: 0x1EC19, offset: 0x1EC19, size: 0x8, addend: 0x0, symName: __ZNKSt3__16vectorIiNS_9allocatorIiEEE4sizeB7v160006Ev, symObjAddr: 0x2C08, symBinAddr: 0x100006D68, symSize: 0x28 }
  - { offsetInCU: 0x1EC3F, offset: 0x1EC3F, size: 0x8, addend: 0x0, symName: __ZNSt3__16vectorIiNS_9allocatorIiEEE22__base_destruct_at_endB7v160006EPi, symObjAddr: 0x2C44, symBinAddr: 0x100006DA4, symSize: 0x8C }
  - { offsetInCU: 0x1EC83, offset: 0x1EC83, size: 0x8, addend: 0x0, symName: __ZNSt3__116allocator_traitsINS_9allocatorIiEEE7destroyB7v160006IivvEEvRS2_PT_, symObjAddr: 0x2CD0, symBinAddr: 0x100006E30, symSize: 0x28 }
  - { offsetInCU: 0x1ECBD, offset: 0x1ECBD, size: 0x8, addend: 0x0, symName: __ZNSt3__19allocatorIiE10deallocateB7v160006EPim, symObjAddr: 0x2D2C, symBinAddr: 0x100006E8C, symSize: 0x40 }
  - { offsetInCU: 0x1ECFF, offset: 0x1ECFF, size: 0x8, addend: 0x0, symName: __ZNSt3__117__compressed_pairIPiNS_9allocatorIiEEE6secondB7v160006Ev, symObjAddr: 0x2E94, symBinAddr: 0x100006FF4, symSize: 0x24 }
  - { offsetInCU: 0x1ED25, offset: 0x1ED25, size: 0x8, addend: 0x0, symName: __ZNSt3__122__compressed_pair_elemINS_9allocatorIiEELi1ELb1EE5__getB7v160006Ev, symObjAddr: 0x2EB8, symBinAddr: 0x100007018, symSize: 0x14 }
  - { offsetInCU: 0x1ED4B, offset: 0x1ED4B, size: 0x8, addend: 0x0, symName: __ZNKSt3__16vectorIiNS_9allocatorIiEEE9__end_capB7v160006Ev, symObjAddr: 0x2ECC, symBinAddr: 0x10000702C, symSize: 0x28 }
  - { offsetInCU: 0x1ED71, offset: 0x1ED71, size: 0x8, addend: 0x0, symName: __ZNKSt3__117__compressed_pairIPiNS_9allocatorIiEEE5firstB7v160006Ev, symObjAddr: 0x2EF4, symBinAddr: 0x100007054, symSize: 0x24 }
  - { offsetInCU: 0x1ED97, offset: 0x1ED97, size: 0x8, addend: 0x0, symName: __ZNKSt3__122__compressed_pair_elemIPiLi0ELb0EE5__getB7v160006Ev, symObjAddr: 0x2F18, symBinAddr: 0x100007078, symSize: 0x14 }
  - { offsetInCU: 0x1EDBD, offset: 0x1EDBD, size: 0x8, addend: 0x0, symName: __ZNSt3__16vectorINS0_I4gridNS_9allocatorIS1_EEEENS2_IS4_EEE11__make_iterB7v160006EPS4_, symObjAddr: 0x2F2C, symBinAddr: 0x10000708C, symSize: 0x34 }
  - { offsetInCU: 0x1EDF2, offset: 0x1EDF2, size: 0x8, addend: 0x0, symName: __ZNSt3__111__wrap_iterIPNS_6vectorI4gridNS_9allocatorIS2_EEEEEC1B7v160006EPKvS6_, symObjAddr: 0x2F60, symBinAddr: 0x1000070C0, symSize: 0x3C }
  - { offsetInCU: 0x1EE38, offset: 0x1EE38, size: 0x8, addend: 0x0, symName: __ZNSt3__111__wrap_iterIPNS_6vectorI4gridNS_9allocatorIS2_EEEEEC2B7v160006EPKvS6_, symObjAddr: 0x2F9C, symBinAddr: 0x1000070FC, symSize: 0x24 }
  - { offsetInCU: 0x1EE7E, offset: 0x1EE7E, size: 0x8, addend: 0x0, symName: __ZNKSt3__111__wrap_iterIPNS_6vectorI4gridNS_9allocatorIS2_EEEEE4baseB7v160006Ev, symObjAddr: 0x3008, symBinAddr: 0x100007168, symSize: 0x18 }
  - { offsetInCU: 0x1EEA4, offset: 0x1EEA4, size: 0x8, addend: 0x0, symName: __ZNSt3__16vectorI4gridNS_9allocatorIS1_EEEC2ERKS4_, symObjAddr: 0x3020, symBinAddr: 0x100007180, symSize: 0x114 }
  - { offsetInCU: 0x1EF0D, offset: 0x1EF0D, size: 0x8, addend: 0x0, symName: __ZNSt3__116allocator_traitsINS_9allocatorI4gridEEE37select_on_container_copy_constructionB7v160006IS3_vvEES3_RKS3_, symObjAddr: 0x3134, symBinAddr: 0x100007294, symSize: 0x10 }
  - { offsetInCU: 0x1EF3C, offset: 0x1EF3C, size: 0x8, addend: 0x0, symName: __ZNKSt3__16vectorI4gridNS_9allocatorIS1_EEE7__allocB7v160006Ev, symObjAddr: 0x3144, symBinAddr: 0x1000072A4, symSize: 0x28 }
  - { offsetInCU: 0x1EF6C, offset: 0x1EF6C, size: 0x8, addend: 0x0, symName: __ZNSt3__117__compressed_pairIP4gridNS_9allocatorIS1_EEEC1B7v160006IDnS4_EEOT_OT0_, symObjAddr: 0x316C, symBinAddr: 0x1000072CC, symSize: 0x3C }
  - { offsetInCU: 0x1EFC4, offset: 0x1EFC4, size: 0x8, addend: 0x0, symName: __ZNSt3__16vectorI4gridNS_9allocatorIS1_EEE16__destroy_vectorC1ERS4_, symObjAddr: 0x31E8, symBinAddr: 0x100007348, symSize: 0x34 }
  - { offsetInCU: 0x1EFFD, offset: 0x1EFFD, size: 0x8, addend: 0x0, symName: __ZNSt3__16vectorI4gridNS_9allocatorIS1_EEE11__vallocateB7v160006Em, symObjAddr: 0x322C, symBinAddr: 0x10000738C, symSize: 0xAC }
  - { offsetInCU: 0x1F041, offset: 0x1F041, size: 0x8, addend: 0x0, symName: __ZNSt3__16vectorI4gridNS_9allocatorIS1_EEE18__construct_at_endIPS1_Li0EEEvT_S7_m, symObjAddr: 0x32D8, symBinAddr: 0x100007438, symSize: 0x8C }
  - { offsetInCU: 0x1F0B4, offset: 0x1F0B4, size: 0x8, addend: 0x0, symName: __ZNSt3__128__exception_guard_exceptionsINS_6vectorI4gridNS_9allocatorIS2_EEE16__destroy_vectorEE10__completeB7v160006Ev, symObjAddr: 0x3364, symBinAddr: 0x1000074C4, symSize: 0x1C }
  - { offsetInCU: 0x1F0DA, offset: 0x1F0DA, size: 0x8, addend: 0x0, symName: __ZNSt3__128__exception_guard_exceptionsINS_6vectorI4gridNS_9allocatorIS2_EEE16__destroy_vectorEED1B7v160006Ev, symObjAddr: 0x3380, symBinAddr: 0x1000074E0, symSize: 0x2C }
  - { offsetInCU: 0x1F104, offset: 0x1F104, size: 0x8, addend: 0x0, symName: __ZNKSt3__117__compressed_pairIP4gridNS_9allocatorIS1_EEE6secondB7v160006Ev, symObjAddr: 0x33AC, symBinAddr: 0x10000750C, symSize: 0x24 }
  - { offsetInCU: 0x1F12A, offset: 0x1F12A, size: 0x8, addend: 0x0, symName: __ZNKSt3__122__compressed_pair_elemINS_9allocatorI4gridEELi1ELb1EE5__getB7v160006Ev, symObjAddr: 0x33D0, symBinAddr: 0x100007530, symSize: 0x14 }
  - { offsetInCU: 0x1F150, offset: 0x1F150, size: 0x8, addend: 0x0, symName: __ZNSt3__117__compressed_pairIP4gridNS_9allocatorIS1_EEEC2B7v160006IDnS4_EEOT_OT0_, symObjAddr: 0x33E4, symBinAddr: 0x100007544, symSize: 0x44 }
  - { offsetInCU: 0x1F1A8, offset: 0x1F1A8, size: 0x8, addend: 0x0, symName: __ZNSt3__122__compressed_pair_elemIP4gridLi0ELb0EEC2B7v160006IDnvEEOT_, symObjAddr: 0x3428, symBinAddr: 0x100007588, symSize: 0x1C }
  - { offsetInCU: 0x1F1EA, offset: 0x1F1EA, size: 0x8, addend: 0x0, symName: __ZNSt3__122__compressed_pair_elemINS_9allocatorI4gridEELi1ELb1EEC2B7v160006IS3_vEEOT_, symObjAddr: 0x3444, symBinAddr: 0x1000075A4, symSize: 0x18 }
  - { offsetInCU: 0x1F22C, offset: 0x1F22C, size: 0x8, addend: 0x0, symName: __ZNSt3__128__exception_guard_exceptionsINS_6vectorI4gridNS_9allocatorIS2_EEE16__destroy_vectorEEC1B7v160006ES6_, symObjAddr: 0x345C, symBinAddr: 0x1000075BC, symSize: 0x34 }
  - { offsetInCU: 0x1F264, offset: 0x1F264, size: 0x8, addend: 0x0, symName: __ZNSt3__128__exception_guard_exceptionsINS_6vectorI4gridNS_9allocatorIS2_EEE16__destroy_vectorEEC2B7v160006ES6_, symObjAddr: 0x3490, symBinAddr: 0x1000075F0, symSize: 0x24 }
  - { offsetInCU: 0x1F29C, offset: 0x1F29C, size: 0x8, addend: 0x0, symName: __ZNSt3__16vectorI4gridNS_9allocatorIS1_EEE16__destroy_vectorC2ERS4_, symObjAddr: 0x34B4, symBinAddr: 0x100007614, symSize: 0x20 }
  - { offsetInCU: 0x1F2D5, offset: 0x1F2D5, size: 0x8, addend: 0x0, symName: __ZNKSt3__16vectorI4gridNS_9allocatorIS1_EEE8max_sizeEv, symObjAddr: 0x34D4, symBinAddr: 0x100007634, symSize: 0x60 }
  - { offsetInCU: 0x1F2FD, offset: 0x1F2FD, size: 0x8, addend: 0x0, symName: __ZNKSt3__16vectorI4gridNS_9allocatorIS1_EEE20__throw_length_errorB7v160006Ev, symObjAddr: 0x3534, symBinAddr: 0x100007694, symSize: 0x1C }
  - { offsetInCU: 0x1F323, offset: 0x1F323, size: 0x8, addend: 0x0, symName: __ZNSt3__16vectorI4gridNS_9allocatorIS1_EEE7__allocB7v160006Ev, symObjAddr: 0x3590, symBinAddr: 0x1000076F0, symSize: 0x28 }
  - { offsetInCU: 0x1F349, offset: 0x1F349, size: 0x8, addend: 0x0, symName: __ZNSt3__16vectorI4gridNS_9allocatorIS1_EEE9__end_capB7v160006Ev, symObjAddr: 0x35B8, symBinAddr: 0x100007718, symSize: 0x28 }
  - { offsetInCU: 0x1F36F, offset: 0x1F36F, size: 0x8, addend: 0x0, symName: __ZNKSt3__16vectorI4gridNS_9allocatorIS1_EEE14__annotate_newB7v160006Em, symObjAddr: 0x35E0, symBinAddr: 0x100007740, symSize: 0xAC }
  - { offsetInCU: 0x1F3A4, offset: 0x1F3A4, size: 0x8, addend: 0x0, symName: __ZNSt3__116allocator_traitsINS_9allocatorI4gridEEE8max_sizeB7v160006IS3_vvEEmRKS3_, symObjAddr: 0x36B8, symBinAddr: 0x100007818, symSize: 0x28 }
  - { offsetInCU: 0x1F3CF, offset: 0x1F3CF, size: 0x8, addend: 0x0, symName: __ZNSt3__114numeric_limitsIlE3maxB7v160006Ev, symObjAddr: 0x36E0, symBinAddr: 0x100007840, symSize: 0x14 }
  - { offsetInCU: 0x1F3ED, offset: 0x1F3ED, size: 0x8, addend: 0x0, symName: __ZNKSt3__16__lessImmEclB7v160006ERKmS3_, symObjAddr: 0x3748, symBinAddr: 0x1000078A8, symSize: 0x34 }
  - { offsetInCU: 0x1F42F, offset: 0x1F42F, size: 0x8, addend: 0x0, symName: __ZNSt3__114numeric_limitsImE3maxB7v160006Ev, symObjAddr: 0x377C, symBinAddr: 0x1000078DC, symSize: 0x14 }
  - { offsetInCU: 0x1F443, offset: 0x1F443, size: 0x8, addend: 0x0, symName: __ZNSt3__123__libcpp_numeric_limitsImLb1EE3maxB7v160006Ev, symObjAddr: 0x3790, symBinAddr: 0x1000078F0, symSize: 0x8 }
  - { offsetInCU: 0x1F457, offset: 0x1F457, size: 0x8, addend: 0x0, symName: __ZNSt3__123__libcpp_numeric_limitsIlLb1EE3maxB7v160006Ev, symObjAddr: 0x3798, symBinAddr: 0x1000078F8, symSize: 0x8 }
  - { offsetInCU: 0x1F46B, offset: 0x1F46B, size: 0x8, addend: 0x0, symName: __ZNSt12length_errorC1B7v160006EPKc, symObjAddr: 0x3804, symBinAddr: 0x100007964, symSize: 0x34 }
  - { offsetInCU: 0x1F4A3, offset: 0x1F4A3, size: 0x8, addend: 0x0, symName: __ZNSt12length_errorC2B7v160006EPKc, symObjAddr: 0x3838, symBinAddr: 0x100007998, symSize: 0x4C }
  - { offsetInCU: 0x1F4DB, offset: 0x1F4DB, size: 0x8, addend: 0x0, symName: __ZNSt3__19allocatorI4gridE8allocateB7v160006Em, symObjAddr: 0x3884, symBinAddr: 0x1000079E4, symSize: 0x58 }
  - { offsetInCU: 0x1F50F, offset: 0x1F50F, size: 0x8, addend: 0x0, symName: __ZNSt3__117__compressed_pairIP4gridNS_9allocatorIS1_EEE6secondB7v160006Ev, symObjAddr: 0x39C0, symBinAddr: 0x100007B20, symSize: 0x24 }
  - { offsetInCU: 0x1F535, offset: 0x1F535, size: 0x8, addend: 0x0, symName: __ZNSt3__122__compressed_pair_elemINS_9allocatorI4gridEELi1ELb1EE5__getB7v160006Ev, symObjAddr: 0x39E4, symBinAddr: 0x100007B44, symSize: 0x14 }
  - { offsetInCU: 0x1F55B, offset: 0x1F55B, size: 0x8, addend: 0x0, symName: __ZNSt3__117__compressed_pairIP4gridNS_9allocatorIS1_EEE5firstB7v160006Ev, symObjAddr: 0x39F8, symBinAddr: 0x100007B58, symSize: 0x24 }
  - { offsetInCU: 0x1F581, offset: 0x1F581, size: 0x8, addend: 0x0, symName: __ZNSt3__122__compressed_pair_elemIP4gridLi0ELb0EE5__getB7v160006Ev, symObjAddr: 0x3A1C, symBinAddr: 0x100007B7C, symSize: 0x14 }
  - { offsetInCU: 0x1F5A7, offset: 0x1F5A7, size: 0x8, addend: 0x0, symName: __ZNKSt3__16vectorI4gridNS_9allocatorIS1_EEE31__annotate_contiguous_containerB7v160006EPKvS6_S6_S6_, symObjAddr: 0x3A30, symBinAddr: 0x100007B90, symSize: 0x20 }
  - { offsetInCU: 0x1F5F9, offset: 0x1F5F9, size: 0x8, addend: 0x0, symName: __ZNKSt3__16vectorI4gridNS_9allocatorIS1_EEE4dataB7v160006Ev, symObjAddr: 0x3A50, symBinAddr: 0x100007BB0, symSize: 0x28 }
  - { offsetInCU: 0x1F61F, offset: 0x1F61F, size: 0x8, addend: 0x0, symName: __ZNKSt3__16vectorI4gridNS_9allocatorIS1_EEE8capacityB7v160006Ev, symObjAddr: 0x3A78, symBinAddr: 0x100007BD8, symSize: 0x40 }
  - { offsetInCU: 0x1F645, offset: 0x1F645, size: 0x8, addend: 0x0, symName: __ZNKSt3__16vectorI4gridNS_9allocatorIS1_EEE9__end_capB7v160006Ev, symObjAddr: 0x3ACC, symBinAddr: 0x100007C2C, symSize: 0x28 }
  - { offsetInCU: 0x1F66B, offset: 0x1F66B, size: 0x8, addend: 0x0, symName: __ZNKSt3__117__compressed_pairIP4gridNS_9allocatorIS1_EEE5firstB7v160006Ev, symObjAddr: 0x3AF4, symBinAddr: 0x100007C54, symSize: 0x24 }
  - { offsetInCU: 0x1F691, offset: 0x1F691, size: 0x8, addend: 0x0, symName: __ZNKSt3__122__compressed_pair_elemIP4gridLi0ELb0EE5__getB7v160006Ev, symObjAddr: 0x3B18, symBinAddr: 0x100007C78, symSize: 0x14 }
  - { offsetInCU: 0x1F6D0, offset: 0x1F6D0, size: 0x8, addend: 0x0, symName: __ZNSt3__16vectorI4gridNS_9allocatorIS1_EEE21_ConstructTransactionC1B7v160006ERS4_m, symObjAddr: 0x3B2C, symBinAddr: 0x100007C8C, symSize: 0x3C }
  - { offsetInCU: 0x1F718, offset: 0x1F718, size: 0x8, addend: 0x0, symName: __ZNSt3__16vectorI4gridNS_9allocatorIS1_EEE21_ConstructTransactionD1B7v160006Ev, symObjAddr: 0x3C5C, symBinAddr: 0x100007DBC, symSize: 0x2C }
  - { offsetInCU: 0x1F742, offset: 0x1F742, size: 0x8, addend: 0x0, symName: __ZNSt3__16vectorI4gridNS_9allocatorIS1_EEE21_ConstructTransactionC2B7v160006ERS4_m, symObjAddr: 0x3C88, symBinAddr: 0x100007DE8, symSize: 0x44 }
  - { offsetInCU: 0x1F78A, offset: 0x1F78A, size: 0x8, addend: 0x0, symName: __ZNSt3__129_AllocatorDestroyRangeReverseINS_9allocatorI4gridEEPS2_EC1B7v160006ERS3_RS4_S7_, symObjAddr: 0x3D18, symBinAddr: 0x100007E78, symSize: 0x44 }
  - { offsetInCU: 0x1F7E1, offset: 0x1F7E1, size: 0x8, addend: 0x0, symName: __ZNSt3__116allocator_traitsINS_9allocatorI4gridEEE9constructB7v160006IS2_JRS2_EvvEEvRS3_PT_DpOT0_, symObjAddr: 0x3D5C, symBinAddr: 0x100007EBC, symSize: 0x30 }
  - { offsetInCU: 0x1F835, offset: 0x1F835, size: 0x8, addend: 0x0, symName: __ZNSt3__128__exception_guard_exceptionsINS_29_AllocatorDestroyRangeReverseINS_9allocatorI4gridEEPS3_EEE10__completeB7v160006Ev, symObjAddr: 0x3D8C, symBinAddr: 0x100007EEC, symSize: 0x1C }
  - { offsetInCU: 0x1F85B, offset: 0x1F85B, size: 0x8, addend: 0x0, symName: __ZNSt3__128__exception_guard_exceptionsINS_29_AllocatorDestroyRangeReverseINS_9allocatorI4gridEEPS3_EEED1B7v160006Ev, symObjAddr: 0x3DA8, symBinAddr: 0x100007F08, symSize: 0x2C }
  - { offsetInCU: 0x1F885, offset: 0x1F885, size: 0x8, addend: 0x0, symName: __ZNSt3__128__exception_guard_exceptionsINS_29_AllocatorDestroyRangeReverseINS_9allocatorI4gridEEPS3_EEEC1B7v160006ES6_, symObjAddr: 0x3DD4, symBinAddr: 0x100007F34, symSize: 0x34 }
  - { offsetInCU: 0x1F8BE, offset: 0x1F8BE, size: 0x8, addend: 0x0, symName: __ZNSt3__128__exception_guard_exceptionsINS_29_AllocatorDestroyRangeReverseINS_9allocatorI4gridEEPS3_EEEC2B7v160006ES6_, symObjAddr: 0x3E08, symBinAddr: 0x100007F68, symSize: 0x30 }
  - { offsetInCU: 0x1F8F7, offset: 0x1F8F7, size: 0x8, addend: 0x0, symName: __ZNSt3__129_AllocatorDestroyRangeReverseINS_9allocatorI4gridEEPS2_EC2B7v160006ERS3_RS4_S7_, symObjAddr: 0x3E38, symBinAddr: 0x100007F98, symSize: 0x38 }
  - { offsetInCU: 0x1F94E, offset: 0x1F94E, size: 0x8, addend: 0x0, symName: __ZNSt3__128__exception_guard_exceptionsINS_29_AllocatorDestroyRangeReverseINS_9allocatorI4gridEEPS3_EEED2B7v160006Ev, symObjAddr: 0x3E9C, symBinAddr: 0x100007FFC, symSize: 0x50 }
  - { offsetInCU: 0x1F978, offset: 0x1F978, size: 0x8, addend: 0x0, symName: __ZNKSt3__129_AllocatorDestroyRangeReverseINS_9allocatorI4gridEEPS2_EclB7v160006Ev, symObjAddr: 0x3EEC, symBinAddr: 0x10000804C, symSize: 0x68 }
  - { offsetInCU: 0x1F99E, offset: 0x1F99E, size: 0x8, addend: 0x0, symName: __ZNSt3__116reverse_iteratorIP4gridEC1B7v160006ES2_, symObjAddr: 0x3FC4, symBinAddr: 0x100008124, symSize: 0x34 }
  - { offsetInCU: 0x1F9D6, offset: 0x1F9D6, size: 0x8, addend: 0x0, symName: __ZNSt3__116allocator_traitsINS_9allocatorI4gridEEE7destroyB7v160006IS2_vvEEvRS3_PT_, symObjAddr: 0x4040, symBinAddr: 0x1000081A0, symSize: 0x28 }
  - { offsetInCU: 0x1FA10, offset: 0x1FA10, size: 0x8, addend: 0x0, symName: __ZNSt3__116reverse_iteratorIP4gridEppB7v160006Ev, symObjAddr: 0x408C, symBinAddr: 0x1000081EC, symSize: 0x20 }
  - { offsetInCU: 0x1FA36, offset: 0x1FA36, size: 0x8, addend: 0x0, symName: __ZNKSt3__116reverse_iteratorIP4gridE4baseB7v160006Ev, symObjAddr: 0x40AC, symBinAddr: 0x10000820C, symSize: 0x18 }
  - { offsetInCU: 0x1FA61, offset: 0x1FA61, size: 0x8, addend: 0x0, symName: __ZNSt3__119__to_address_helperINS_16reverse_iteratorIP4gridEEvE6__callB7v160006ERKS4_, symObjAddr: 0x40F8, symBinAddr: 0x100008258, symSize: 0x38 }
  - { offsetInCU: 0x1FA84, offset: 0x1FA84, size: 0x8, addend: 0x0, symName: __ZNKSt3__116reverse_iteratorIP4gridEptB7v160006Ev, symObjAddr: 0x4130, symBinAddr: 0x100008290, symSize: 0x2C }
  - { offsetInCU: 0x1FAAA, offset: 0x1FAAA, size: 0x8, addend: 0x0, symName: __ZNSt3__116reverse_iteratorIP4gridEC2B7v160006ES2_, symObjAddr: 0x4238, symBinAddr: 0x100008398, symSize: 0x28 }
  - { offsetInCU: 0x1FAE2, offset: 0x1FAE2, size: 0x8, addend: 0x0, symName: __ZNSt3__16vectorI4gridNS_9allocatorIS1_EEE21_ConstructTransactionD2B7v160006Ev, symObjAddr: 0x4260, symBinAddr: 0x1000083C0, symSize: 0x20 }
  - { offsetInCU: 0x1FB0C, offset: 0x1FB0C, size: 0x8, addend: 0x0, symName: __ZNSt3__128__exception_guard_exceptionsINS_6vectorI4gridNS_9allocatorIS2_EEE16__destroy_vectorEED2B7v160006Ev, symObjAddr: 0x4280, symBinAddr: 0x1000083E0, symSize: 0x50 }
  - { offsetInCU: 0x1FB36, offset: 0x1FB36, size: 0x8, addend: 0x0, symName: __ZNSt3__16vectorI4gridNS_9allocatorIS1_EEE16__destroy_vectorclB7v160006Ev, symObjAddr: 0x42D0, symBinAddr: 0x100008430, symSize: 0x9C }
  - { offsetInCU: 0x1FB5C, offset: 0x1FB5C, size: 0x8, addend: 0x0, symName: __ZNKSt3__16vectorI4gridNS_9allocatorIS1_EEE17__annotate_deleteB7v160006Ev, symObjAddr: 0x436C, symBinAddr: 0x1000084CC, symSize: 0xB8 }
  - { offsetInCU: 0x1FB82, offset: 0x1FB82, size: 0x8, addend: 0x0, symName: __ZNSt3__16vectorI4gridNS_9allocatorIS1_EEE7__clearB7v160006Ev, symObjAddr: 0x4434, symBinAddr: 0x100008594, symSize: 0x28 }
  - { offsetInCU: 0x1FBA8, offset: 0x1FBA8, size: 0x8, addend: 0x0, symName: __ZNSt3__116allocator_traitsINS_9allocatorI4gridEEE10deallocateB7v160006ERS3_PS2_m, symObjAddr: 0x445C, symBinAddr: 0x1000085BC, symSize: 0x34 }
  - { offsetInCU: 0x1FBEA, offset: 0x1FBEA, size: 0x8, addend: 0x0, symName: __ZNSt3__16vectorI4gridNS_9allocatorIS1_EEE22__base_destruct_at_endB7v160006EPS1_, symObjAddr: 0x4490, symBinAddr: 0x1000085F0, symSize: 0x8C }
  - { offsetInCU: 0x1FC2E, offset: 0x1FC2E, size: 0x8, addend: 0x0, symName: __ZNSt3__19allocatorI4gridE10deallocateB7v160006EPS1_m, symObjAddr: 0x451C, symBinAddr: 0x10000867C, symSize: 0x40 }
  - { offsetInCU: 0x1FC70, offset: 0x1FC70, size: 0x8, addend: 0x0, symName: __ZNSt3__16vectorI4gridNS_9allocatorIS1_EEE11__make_iterB7v160006EPS1_, symObjAddr: 0x455C, symBinAddr: 0x1000086BC, symSize: 0x34 }
  - { offsetInCU: 0x1FCA5, offset: 0x1FCA5, size: 0x8, addend: 0x0, symName: __ZNSt3__111__wrap_iterIP4gridEC1B7v160006EPKvS2_, symObjAddr: 0x4590, symBinAddr: 0x1000086F0, symSize: 0x3C }
  - { offsetInCU: 0x1FCEB, offset: 0x1FCEB, size: 0x8, addend: 0x0, symName: __ZNSt3__111__wrap_iterIP4gridEC2B7v160006EPKvS2_, symObjAddr: 0x45CC, symBinAddr: 0x10000872C, symSize: 0x24 }
  - { offsetInCU: 0x1FD31, offset: 0x1FD31, size: 0x8, addend: 0x0, symName: __ZNKSt3__111__wrap_iterIP4gridE4baseB7v160006Ev, symObjAddr: 0x4638, symBinAddr: 0x100008798, symSize: 0x18 }
  - { offsetInCU: 0x1FD57, offset: 0x1FD57, size: 0x8, addend: 0x0, symName: __ZNSt3__16vectorI4gridNS_9allocatorIS1_EEED2B7v160006Ev, symObjAddr: 0x4650, symBinAddr: 0x1000087B0, symSize: 0x44 }
  - { offsetInCU: 0x1FD81, offset: 0x1FD81, size: 0x8, addend: 0x0, symName: __ZNSt3__16vectorINS0_I4gridNS_9allocatorIS1_EEEENS2_IS4_EEEC2B7v160006Ev, symObjAddr: 0x4694, symBinAddr: 0x1000087F4, symSize: 0x58 }
  - { offsetInCU: 0x1FDB0, offset: 0x1FDB0, size: 0x8, addend: 0x0, symName: __ZNSt3__117__compressed_pairIPNS_6vectorI4gridNS_9allocatorIS2_EEEENS3_IS5_EEEC1B7v160006IDnNS_18__default_init_tagEEEOT_OT0_, symObjAddr: 0x46EC, symBinAddr: 0x10000884C, symSize: 0x3C }
  - { offsetInCU: 0x1FE08, offset: 0x1FE08, size: 0x8, addend: 0x0, symName: __ZNSt3__117__compressed_pairIPNS_6vectorI4gridNS_9allocatorIS2_EEEENS3_IS5_EEEC2B7v160006IDnNS_18__default_init_tagEEEOT_OT0_, symObjAddr: 0x4738, symBinAddr: 0x100008898, symSize: 0x40 }
  - { offsetInCU: 0x1FE60, offset: 0x1FE60, size: 0x8, addend: 0x0, symName: __ZNSt3__122__compressed_pair_elemIPNS_6vectorI4gridNS_9allocatorIS2_EEEELi0ELb0EEC2B7v160006IDnvEEOT_, symObjAddr: 0x4778, symBinAddr: 0x1000088D8, symSize: 0x1C }
  - { offsetInCU: 0x1FEA2, offset: 0x1FEA2, size: 0x8, addend: 0x0, symName: __ZNSt3__122__compressed_pair_elemINS_9allocatorINS_6vectorI4gridNS1_IS3_EEEEEELi1ELb1EEC2B7v160006ENS_18__default_init_tagE, symObjAddr: 0x4794, symBinAddr: 0x1000088F4, symSize: 0x2C }
  - { offsetInCU: 0x1FED6, offset: 0x1FED6, size: 0x8, addend: 0x0, symName: __ZNSt3__19allocatorINS_6vectorI4gridNS0_IS2_EEEEEC2B7v160006Ev, symObjAddr: 0x47C0, symBinAddr: 0x100008920, symSize: 0x2C }
  - { offsetInCU: 0x1FF00, offset: 0x1FF00, size: 0x8, addend: 0x0, symName: __ZNSt3__116__non_trivial_ifILb1ENS_9allocatorINS_6vectorI4gridNS1_IS3_EEEEEEEC2B7v160006Ev, symObjAddr: 0x47EC, symBinAddr: 0x10000894C, symSize: 0x14 }
  - { offsetInCU: 0x1FF2A, offset: 0x1FF2A, size: 0x8, addend: 0x0, symName: __ZNSt3__112basic_stringIcNS_11char_traitsIcEENS_9allocatorIcEEEC2B7v160006Ev, symObjAddr: 0x4800, symBinAddr: 0x100008960, symSize: 0x54 }
  - { offsetInCU: 0x1FF54, offset: 0x1FF54, size: 0x8, addend: 0x0, symName: __ZNSt3__117__compressed_pairINS_12basic_stringIcNS_11char_traitsIcEENS_9allocatorIcEEE5__repES5_EC1B7v160006INS_18__default_init_tagESA_EEOT_OT0_, symObjAddr: 0x4854, symBinAddr: 0x1000089B4, symSize: 0x3C }
  - { offsetInCU: 0x1FFAC, offset: 0x1FFAC, size: 0x8, addend: 0x0, symName: __ZNSt3__112basic_stringIcNS_11char_traitsIcEENS_9allocatorIcEEE14__default_initB7v160006Ev, symObjAddr: 0x48A0, symBinAddr: 0x100008A00, symSize: 0x40 }
  - { offsetInCU: 0x1FFD2, offset: 0x1FFD2, size: 0x8, addend: 0x0, symName: __ZNSt3__117__compressed_pairINS_12basic_stringIcNS_11char_traitsIcEENS_9allocatorIcEEE5__repES5_EC2B7v160006INS_18__default_init_tagESA_EEOT_OT0_, symObjAddr: 0x48E0, symBinAddr: 0x100008A40, symSize: 0x3C }
  - { offsetInCU: 0x2002A, offset: 0x2002A, size: 0x8, addend: 0x0, symName: __ZNSt3__122__compressed_pair_elemINS_12basic_stringIcNS_11char_traitsIcEENS_9allocatorIcEEE5__repELi0ELb0EEC2B7v160006ENS_18__default_init_tagE, symObjAddr: 0x491C, symBinAddr: 0x100008A7C, symSize: 0x14 }
  - { offsetInCU: 0x2005E, offset: 0x2005E, size: 0x8, addend: 0x0, symName: __ZNSt3__122__compressed_pair_elemINS_9allocatorIcEELi1ELb1EEC2B7v160006ENS_18__default_init_tagE, symObjAddr: 0x4930, symBinAddr: 0x100008A90, symSize: 0x2C }
  - { offsetInCU: 0x20092, offset: 0x20092, size: 0x8, addend: 0x0, symName: __ZNSt3__19allocatorIcEC2B7v160006Ev, symObjAddr: 0x495C, symBinAddr: 0x100008ABC, symSize: 0x2C }
  - { offsetInCU: 0x200BC, offset: 0x200BC, size: 0x8, addend: 0x0, symName: __ZNSt3__116__non_trivial_ifILb1ENS_9allocatorIcEEEC2B7v160006Ev, symObjAddr: 0x4988, symBinAddr: 0x100008AE8, symSize: 0x14 }
  - { offsetInCU: 0x200E6, offset: 0x200E6, size: 0x8, addend: 0x0, symName: __ZNSt3__117__compressed_pairINS_12basic_stringIcNS_11char_traitsIcEENS_9allocatorIcEEE5__repES5_E5firstB7v160006Ev, symObjAddr: 0x499C, symBinAddr: 0x100008AFC, symSize: 0x24 }
  - { offsetInCU: 0x2010C, offset: 0x2010C, size: 0x8, addend: 0x0, symName: __ZNSt3__122__compressed_pair_elemINS_12basic_stringIcNS_11char_traitsIcEENS_9allocatorIcEEE5__repELi0ELb0EE5__getB7v160006Ev, symObjAddr: 0x49C0, symBinAddr: 0x100008B20, symSize: 0x14 }
  - { offsetInCU: 0x20132, offset: 0x20132, size: 0x8, addend: 0x0, symName: __ZNSt3__16vectorINS0_I4gridNS_9allocatorIS1_EEEENS2_IS4_EEE9__end_capB7v160006Ev, symObjAddr: 0x49D4, symBinAddr: 0x100008B34, symSize: 0x28 }
  - { offsetInCU: 0x20158, offset: 0x20158, size: 0x8, addend: 0x0, symName: __ZNSt3__16vectorINS0_I4gridNS_9allocatorIS1_EEEENS2_IS4_EEE22__construct_one_at_endB7v160006IJS4_EEEvDpOT_, symObjAddr: 0x49FC, symBinAddr: 0x100008B5C, symSize: 0x90 }
  - { offsetInCU: 0x201A7, offset: 0x201A7, size: 0x8, addend: 0x0, symName: __ZNSt3__16vectorINS0_I4gridNS_9allocatorIS1_EEEENS2_IS4_EEE21__push_back_slow_pathIS4_EEvOT_, symObjAddr: 0x4A8C, symBinAddr: 0x100008BEC, symSize: 0xD8 }
  - { offsetInCU: 0x20205, offset: 0x20205, size: 0x8, addend: 0x0, symName: __ZNSt3__117__compressed_pairIPNS_6vectorI4gridNS_9allocatorIS2_EEEENS3_IS5_EEE5firstB7v160006Ev, symObjAddr: 0x4B64, symBinAddr: 0x100008CC4, symSize: 0x24 }
  - { offsetInCU: 0x2022B, offset: 0x2022B, size: 0x8, addend: 0x0, symName: __ZNSt3__122__compressed_pair_elemIPNS_6vectorI4gridNS_9allocatorIS2_EEEELi0ELb0EE5__getB7v160006Ev, symObjAddr: 0x4B88, symBinAddr: 0x100008CE8, symSize: 0x14 }
  - { offsetInCU: 0x2026A, offset: 0x2026A, size: 0x8, addend: 0x0, symName: __ZNSt3__16vectorINS0_I4gridNS_9allocatorIS1_EEEENS2_IS4_EEE21_ConstructTransactionC1B7v160006ERS6_m, symObjAddr: 0x4B9C, symBinAddr: 0x100008CFC, symSize: 0x3C }
  - { offsetInCU: 0x202B2, offset: 0x202B2, size: 0x8, addend: 0x0, symName: __ZNSt3__116allocator_traitsINS_9allocatorINS_6vectorI4gridNS1_IS3_EEEEEEE9constructB7v160006IS5_JS5_EvvEEvRS6_PT_DpOT0_, symObjAddr: 0x4BD8, symBinAddr: 0x100008D38, symSize: 0x30 }
  - { offsetInCU: 0x20306, offset: 0x20306, size: 0x8, addend: 0x0, symName: __ZNSt3__16vectorINS0_I4gridNS_9allocatorIS1_EEEENS2_IS4_EEE7__allocB7v160006Ev, symObjAddr: 0x4C08, symBinAddr: 0x100008D68, symSize: 0x28 }
  - { offsetInCU: 0x2032C, offset: 0x2032C, size: 0x8, addend: 0x0, symName: __ZNSt3__16vectorINS0_I4gridNS_9allocatorIS1_EEEENS2_IS4_EEE21_ConstructTransactionD1B7v160006Ev, symObjAddr: 0x4C44, symBinAddr: 0x100008DA4, symSize: 0x2C }
  - { offsetInCU: 0x20356, offset: 0x20356, size: 0x8, addend: 0x0, symName: __ZNSt3__16vectorINS0_I4gridNS_9allocatorIS1_EEEENS2_IS4_EEE21_ConstructTransactionC2B7v160006ERS6_m, symObjAddr: 0x4C70, symBinAddr: 0x100008DD0, symSize: 0x4C }
  - { offsetInCU: 0x2039E, offset: 0x2039E, size: 0x8, addend: 0x0, symName: __ZNSt3__16vectorI4gridNS_9allocatorIS1_EEEC1B7v160006EOS4_, symObjAddr: 0x4CF8, symBinAddr: 0x100008E58, symSize: 0x34 }
  - { offsetInCU: 0x203D9, offset: 0x203D9, size: 0x8, addend: 0x0, symName: __ZNSt3__16vectorI4gridNS_9allocatorIS1_EEEC2B7v160006EOS4_, symObjAddr: 0x4D2C, symBinAddr: 0x100008E8C, symSize: 0xDC }
  - { offsetInCU: 0x20414, offset: 0x20414, size: 0x8, addend: 0x0, symName: __ZNSt3__117__compressed_pairIPNS_6vectorI4gridNS_9allocatorIS2_EEEENS3_IS5_EEE6secondB7v160006Ev, symObjAddr: 0x4E1C, symBinAddr: 0x100008F7C, symSize: 0x24 }
  - { offsetInCU: 0x2043A, offset: 0x2043A, size: 0x8, addend: 0x0, symName: __ZNSt3__122__compressed_pair_elemINS_9allocatorINS_6vectorI4gridNS1_IS3_EEEEEELi1ELb1EE5__getB7v160006Ev, symObjAddr: 0x4E40, symBinAddr: 0x100008FA0, symSize: 0x14 }
  - { offsetInCU: 0x20460, offset: 0x20460, size: 0x8, addend: 0x0, symName: __ZNSt3__16vectorINS0_I4gridNS_9allocatorIS1_EEEENS2_IS4_EEE21_ConstructTransactionD2B7v160006Ev, symObjAddr: 0x4E54, symBinAddr: 0x100008FB4, symSize: 0x20 }
  - { offsetInCU: 0x2048A, offset: 0x2048A, size: 0x8, addend: 0x0, symName: __ZNKSt3__16vectorINS0_I4gridNS_9allocatorIS1_EEEENS2_IS4_EEE11__recommendB7v160006Em, symObjAddr: 0x4E74, symBinAddr: 0x100008FD4, symSize: 0xB4 }
  - { offsetInCU: 0x204DF, offset: 0x204DF, size: 0x8, addend: 0x0, symName: __ZNSt3__114__split_bufferINS_6vectorI4gridNS_9allocatorIS2_EEEERNS3_IS5_EEEC1EmmS7_, symObjAddr: 0x4F28, symBinAddr: 0x100009088, symSize: 0x44 }
  - { offsetInCU: 0x20535, offset: 0x20535, size: 0x8, addend: 0x0, symName: __ZNSt3__114__split_bufferINS_6vectorI4gridNS_9allocatorIS2_EEEERNS3_IS5_EEED1Ev, symObjAddr: 0x5084, symBinAddr: 0x1000091E4, symSize: 0x2C }
  - { offsetInCU: 0x20561, offset: 0x20561, size: 0x8, addend: 0x0, symName: __ZNKSt3__16vectorINS0_I4gridNS_9allocatorIS1_EEEENS2_IS4_EEE8max_sizeEv, symObjAddr: 0x50B0, symBinAddr: 0x100009210, symSize: 0x60 }
  - { offsetInCU: 0x20589, offset: 0x20589, size: 0x8, addend: 0x0, symName: __ZNKSt3__16vectorINS0_I4gridNS_9allocatorIS1_EEEENS2_IS4_EEE20__throw_length_errorB7v160006Ev, symObjAddr: 0x5110, symBinAddr: 0x100009270, symSize: 0x1C }
  - { offsetInCU: 0x205AF, offset: 0x205AF, size: 0x8, addend: 0x0, symName: __ZNKSt3__16vectorINS0_I4gridNS_9allocatorIS1_EEEENS2_IS4_EEE8capacityB7v160006Ev, symObjAddr: 0x512C, symBinAddr: 0x10000928C, symSize: 0x40 }
  - { offsetInCU: 0x205DF, offset: 0x205DF, size: 0x8, addend: 0x0, symName: __ZNSt3__116allocator_traitsINS_9allocatorINS_6vectorI4gridNS1_IS3_EEEEEEE8max_sizeB7v160006IS6_vvEEmRKS6_, symObjAddr: 0x5198, symBinAddr: 0x1000092F8, symSize: 0x28 }
  - { offsetInCU: 0x2060A, offset: 0x2060A, size: 0x8, addend: 0x0, symName: __ZNKSt3__16vectorINS0_I4gridNS_9allocatorIS1_EEEENS2_IS4_EEE7__allocB7v160006Ev, symObjAddr: 0x51C0, symBinAddr: 0x100009320, symSize: 0x28 }
  - { offsetInCU: 0x20630, offset: 0x20630, size: 0x8, addend: 0x0, symName: __ZNKSt3__117__compressed_pairIPNS_6vectorI4gridNS_9allocatorIS2_EEEENS3_IS5_EEE6secondB7v160006Ev, symObjAddr: 0x51E8, symBinAddr: 0x100009348, symSize: 0x24 }
  - { offsetInCU: 0x20656, offset: 0x20656, size: 0x8, addend: 0x0, symName: __ZNKSt3__122__compressed_pair_elemINS_9allocatorINS_6vectorI4gridNS1_IS3_EEEEEELi1ELb1EE5__getB7v160006Ev, symObjAddr: 0x520C, symBinAddr: 0x10000936C, symSize: 0x14 }
  - { offsetInCU: 0x2067C, offset: 0x2067C, size: 0x8, addend: 0x0, symName: __ZNKSt3__16vectorINS0_I4gridNS_9allocatorIS1_EEEENS2_IS4_EEE9__end_capB7v160006Ev, symObjAddr: 0x5220, symBinAddr: 0x100009380, symSize: 0x28 }
  - { offsetInCU: 0x206A2, offset: 0x206A2, size: 0x8, addend: 0x0, symName: __ZNKSt3__117__compressed_pairIPNS_6vectorI4gridNS_9allocatorIS2_EEEENS3_IS5_EEE5firstB7v160006Ev, symObjAddr: 0x5248, symBinAddr: 0x1000093A8, symSize: 0x24 }
  - { offsetInCU: 0x206C8, offset: 0x206C8, size: 0x8, addend: 0x0, symName: __ZNKSt3__122__compressed_pair_elemIPNS_6vectorI4gridNS_9allocatorIS2_EEEELi0ELb0EE5__getB7v160006Ev, symObjAddr: 0x526C, symBinAddr: 0x1000093CC, symSize: 0x14 }
  - { offsetInCU: 0x206EE, offset: 0x206EE, size: 0x8, addend: 0x0, symName: __ZNSt3__114__split_bufferINS_6vectorI4gridNS_9allocatorIS2_EEEERNS3_IS5_EEEC2EmmS7_, symObjAddr: 0x52D4, symBinAddr: 0x100009434, symSize: 0xE0 }
  - { offsetInCU: 0x20761, offset: 0x20761, size: 0x8, addend: 0x0, symName: __ZNSt3__117__compressed_pairIPNS_6vectorI4gridNS_9allocatorIS2_EEEERNS3_IS5_EEEC1B7v160006IDnS8_EEOT_OT0_, symObjAddr: 0x53B4, symBinAddr: 0x100009514, symSize: 0x3C }
  - { offsetInCU: 0x207B9, offset: 0x207B9, size: 0x8, addend: 0x0, symName: __ZNSt3__114__split_bufferINS_6vectorI4gridNS_9allocatorIS2_EEEERNS3_IS5_EEE7__allocB7v160006Ev, symObjAddr: 0x5430, symBinAddr: 0x100009590, symSize: 0x28 }
  - { offsetInCU: 0x207DF, offset: 0x207DF, size: 0x8, addend: 0x0, symName: __ZNSt3__114__split_bufferINS_6vectorI4gridNS_9allocatorIS2_EEEERNS3_IS5_EEE9__end_capB7v160006Ev, symObjAddr: 0x5458, symBinAddr: 0x1000095B8, symSize: 0x28 }
  - { offsetInCU: 0x20805, offset: 0x20805, size: 0x8, addend: 0x0, symName: __ZNSt3__117__compressed_pairIPNS_6vectorI4gridNS_9allocatorIS2_EEEERNS3_IS5_EEEC2B7v160006IDnS8_EEOT_OT0_, symObjAddr: 0x5480, symBinAddr: 0x1000095E0, symSize: 0x48 }
  - { offsetInCU: 0x2085D, offset: 0x2085D, size: 0x8, addend: 0x0, symName: __ZNSt3__122__compressed_pair_elemIRNS_9allocatorINS_6vectorI4gridNS1_IS3_EEEEEELi1ELb0EEC2B7v160006IS7_vEEOT_, symObjAddr: 0x54C8, symBinAddr: 0x100009628, symSize: 0x20 }
  - { offsetInCU: 0x2089F, offset: 0x2089F, size: 0x8, addend: 0x0, symName: __ZNSt3__19allocatorINS_6vectorI4gridNS0_IS2_EEEEE8allocateB7v160006Em, symObjAddr: 0x54E8, symBinAddr: 0x100009648, symSize: 0x5C }
  - { offsetInCU: 0x208D3, offset: 0x208D3, size: 0x8, addend: 0x0, symName: __ZNSt3__117__compressed_pairIPNS_6vectorI4gridNS_9allocatorIS2_EEEERNS3_IS5_EEE6secondB7v160006Ev, symObjAddr: 0x5544, symBinAddr: 0x1000096A4, symSize: 0x28 }
  - { offsetInCU: 0x208F9, offset: 0x208F9, size: 0x8, addend: 0x0, symName: __ZNSt3__122__compressed_pair_elemIRNS_9allocatorINS_6vectorI4gridNS1_IS3_EEEEEELi1ELb0EE5__getB7v160006Ev, symObjAddr: 0x556C, symBinAddr: 0x1000096CC, symSize: 0x18 }
  - { offsetInCU: 0x2091F, offset: 0x2091F, size: 0x8, addend: 0x0, symName: __ZNSt3__117__compressed_pairIPNS_6vectorI4gridNS_9allocatorIS2_EEEERNS3_IS5_EEE5firstB7v160006Ev, symObjAddr: 0x5584, symBinAddr: 0x1000096E4, symSize: 0x24 }
  - { offsetInCU: 0x20945, offset: 0x20945, size: 0x8, addend: 0x0, symName: __ZNKSt3__16vectorINS0_I4gridNS_9allocatorIS1_EEEENS2_IS4_EEE17__annotate_deleteB7v160006Ev, symObjAddr: 0x55A8, symBinAddr: 0x100009708, symSize: 0xD4 }
  - { offsetInCU: 0x2096B, offset: 0x2096B, size: 0x8, addend: 0x0, symName: __ZNSt3__116reverse_iteratorIPNS_6vectorI4gridNS_9allocatorIS2_EEEEEC1B7v160006ES6_, symObjAddr: 0x57A8, symBinAddr: 0x100009908, symSize: 0x34 }
  - { offsetInCU: 0x209A3, offset: 0x209A3, size: 0x8, addend: 0x0, symName: __ZNKSt3__116reverse_iteratorIPNS_6vectorI4gridNS_9allocatorIS2_EEEEE4baseB7v160006Ev, symObjAddr: 0x57DC, symBinAddr: 0x10000993C, symSize: 0x18 }
  - { offsetInCU: 0x209C9, offset: 0x209C9, size: 0x8, addend: 0x0, symName: __ZNKSt3__16vectorINS0_I4gridNS_9allocatorIS1_EEEENS2_IS4_EEE14__annotate_newB7v160006Em, symObjAddr: 0x5830, symBinAddr: 0x100009990, symSize: 0xC8 }
  - { offsetInCU: 0x209FE, offset: 0x209FE, size: 0x8, addend: 0x0, symName: __ZNKSt3__16vectorINS0_I4gridNS_9allocatorIS1_EEEENS2_IS4_EEE31__annotate_contiguous_containerB7v160006EPKvS8_S8_S8_, symObjAddr: 0x5908, symBinAddr: 0x100009A68, symSize: 0x20 }
  - { offsetInCU: 0x20A50, offset: 0x20A50, size: 0x8, addend: 0x0, symName: __ZNKSt3__16vectorINS0_I4gridNS_9allocatorIS1_EEEENS2_IS4_EEE4dataB7v160006Ev, symObjAddr: 0x5928, symBinAddr: 0x100009A88, symSize: 0x28 }
  - { offsetInCU: 0x20A76, offset: 0x20A76, size: 0x8, addend: 0x0, symName: __ZNSt3__129_AllocatorDestroyRangeReverseINS_9allocatorINS_6vectorI4gridNS1_IS3_EEEEEENS_16reverse_iteratorIPS5_EEEC1B7v160006ERS6_RS9_SC_, symObjAddr: 0x599C, symBinAddr: 0x100009AFC, symSize: 0x44 }
  - { offsetInCU: 0x20ACD, offset: 0x20ACD, size: 0x8, addend: 0x0, symName: __ZNKSt3__116reverse_iteratorIPNS_6vectorI4gridNS_9allocatorIS2_EEEEEdeB7v160006Ev, symObjAddr: 0x5A4C, symBinAddr: 0x100009BAC, symSize: 0x28 }
  - { offsetInCU: 0x20B01, offset: 0x20B01, size: 0x8, addend: 0x0, symName: __ZNSt3__116reverse_iteratorIPNS_6vectorI4gridNS_9allocatorIS2_EEEEEppB7v160006Ev, symObjAddr: 0x5A74, symBinAddr: 0x100009BD4, symSize: 0x20 }
  - { offsetInCU: 0x20B27, offset: 0x20B27, size: 0x8, addend: 0x0, symName: __ZNSt3__128__exception_guard_exceptionsINS_29_AllocatorDestroyRangeReverseINS_9allocatorINS_6vectorI4gridNS2_IS4_EEEEEENS_16reverse_iteratorIPS6_EEEEE10__completeB7v160006Ev, symObjAddr: 0x5A94, symBinAddr: 0x100009BF4, symSize: 0x1C }
  - { offsetInCU: 0x20B4D, offset: 0x20B4D, size: 0x8, addend: 0x0, symName: __ZNSt3__128__exception_guard_exceptionsINS_29_AllocatorDestroyRangeReverseINS_9allocatorINS_6vectorI4gridNS2_IS4_EEEEEENS_16reverse_iteratorIPS6_EEEEED1B7v160006Ev, symObjAddr: 0x5AB0, symBinAddr: 0x100009C10, symSize: 0x2C }
  - { offsetInCU: 0x20B77, offset: 0x20B77, size: 0x8, addend: 0x0, symName: __ZNSt3__128__exception_guard_exceptionsINS_29_AllocatorDestroyRangeReverseINS_9allocatorINS_6vectorI4gridNS2_IS4_EEEEEENS_16reverse_iteratorIPS6_EEEEEC1B7v160006ESB_, symObjAddr: 0x5ADC, symBinAddr: 0x100009C3C, symSize: 0x34 }
  - { offsetInCU: 0x20BB0, offset: 0x20BB0, size: 0x8, addend: 0x0, symName: __ZNSt3__128__exception_guard_exceptionsINS_29_AllocatorDestroyRangeReverseINS_9allocatorINS_6vectorI4gridNS2_IS4_EEEEEENS_16reverse_iteratorIPS6_EEEEEC2B7v160006ESB_, symObjAddr: 0x5B10, symBinAddr: 0x100009C70, symSize: 0x30 }
  - { offsetInCU: 0x20BE9, offset: 0x20BE9, size: 0x8, addend: 0x0, symName: __ZNSt3__129_AllocatorDestroyRangeReverseINS_9allocatorINS_6vectorI4gridNS1_IS3_EEEEEENS_16reverse_iteratorIPS5_EEEC2B7v160006ERS6_RS9_SC_, symObjAddr: 0x5B40, symBinAddr: 0x100009CA0, symSize: 0x38 }
  - { offsetInCU: 0x20C45, offset: 0x20C45, size: 0x8, addend: 0x0, symName: __ZNSt3__119__to_address_helperINS_16reverse_iteratorIPNS_6vectorI4gridNS_9allocatorIS3_EEEEEEvE6__callB7v160006ERKS8_, symObjAddr: 0x5B78, symBinAddr: 0x100009CD8, symSize: 0x38 }
  - { offsetInCU: 0x20C68, offset: 0x20C68, size: 0x8, addend: 0x0, symName: __ZNKSt3__116reverse_iteratorIPNS_6vectorI4gridNS_9allocatorIS2_EEEEEptB7v160006Ev, symObjAddr: 0x5BB0, symBinAddr: 0x100009D10, symSize: 0x2C }
  - { offsetInCU: 0x20C8E, offset: 0x20C8E, size: 0x8, addend: 0x0, symName: __ZNSt3__128__exception_guard_exceptionsINS_29_AllocatorDestroyRangeReverseINS_9allocatorINS_6vectorI4gridNS2_IS4_EEEEEENS_16reverse_iteratorIPS6_EEEEED2B7v160006Ev, symObjAddr: 0x5CAC, symBinAddr: 0x100009E0C, symSize: 0x50 }
  - { offsetInCU: 0x20CB8, offset: 0x20CB8, size: 0x8, addend: 0x0, symName: __ZNKSt3__129_AllocatorDestroyRangeReverseINS_9allocatorINS_6vectorI4gridNS1_IS3_EEEEEENS_16reverse_iteratorIPS5_EEEclB7v160006Ev, symObjAddr: 0x5CFC, symBinAddr: 0x100009E5C, symSize: 0xB4 }
  - { offsetInCU: 0x20CDF, offset: 0x20CDF, size: 0x8, addend: 0x0, symName: __ZNSt3__116reverse_iteratorINS0_IPNS_6vectorI4gridNS_9allocatorIS2_EEEEEEEC1B7v160006ES7_, symObjAddr: 0x5E20, symBinAddr: 0x100009F80, symSize: 0x3C }
  - { offsetInCU: 0x20D17, offset: 0x20D17, size: 0x8, addend: 0x0, symName: __ZNSt3__116allocator_traitsINS_9allocatorINS_6vectorI4gridNS1_IS3_EEEEEEE7destroyB7v160006IS5_vvEEvRS6_PT_, symObjAddr: 0x5EBC, symBinAddr: 0x10000A01C, symSize: 0x28 }
  - { offsetInCU: 0x20D51, offset: 0x20D51, size: 0x8, addend: 0x0, symName: __ZNSt3__116reverse_iteratorINS0_IPNS_6vectorI4gridNS_9allocatorIS2_EEEEEEEppB7v160006Ev, symObjAddr: 0x5F08, symBinAddr: 0x10000A068, symSize: 0x30 }
  - { offsetInCU: 0x20D77, offset: 0x20D77, size: 0x8, addend: 0x0, symName: __ZNKSt3__116reverse_iteratorINS0_IPNS_6vectorI4gridNS_9allocatorIS2_EEEEEEE4baseB7v160006Ev, symObjAddr: 0x5F38, symBinAddr: 0x10000A098, symSize: 0x24 }
  - { offsetInCU: 0x20DA2, offset: 0x20DA2, size: 0x8, addend: 0x0, symName: __ZNSt3__119__to_address_helperINS_16reverse_iteratorINS1_IPNS_6vectorI4gridNS_9allocatorIS3_EEEEEEEEvE6__callB7v160006ERKS9_, symObjAddr: 0x5FA4, symBinAddr: 0x10000A104, symSize: 0x38 }
  - { offsetInCU: 0x20DC5, offset: 0x20DC5, size: 0x8, addend: 0x0, symName: __ZNKSt3__116reverse_iteratorINS0_IPNS_6vectorI4gridNS_9allocatorIS2_EEEEEEEptB7v160006Ev, symObjAddr: 0x5FDC, symBinAddr: 0x10000A13C, symSize: 0x4C }
  - { offsetInCU: 0x20DEB, offset: 0x20DEB, size: 0x8, addend: 0x0, symName: __ZNSt3__116reverse_iteratorIPNS_6vectorI4gridNS_9allocatorIS2_EEEEEpLB7v160006El, symObjAddr: 0x6104, symBinAddr: 0x10000A264, symSize: 0x30 }
  - { offsetInCU: 0x20E1F, offset: 0x20E1F, size: 0x8, addend: 0x0, symName: __ZNSt3__116reverse_iteratorIPNS_6vectorI4gridNS_9allocatorIS2_EEEEEmmB7v160006Ev, symObjAddr: 0x6134, symBinAddr: 0x10000A294, symSize: 0x20 }
  - { offsetInCU: 0x20E45, offset: 0x20E45, size: 0x8, addend: 0x0, symName: __ZNSt3__116reverse_iteratorINS0_IPNS_6vectorI4gridNS_9allocatorIS2_EEEEEEEC2B7v160006ES7_, symObjAddr: 0x6154, symBinAddr: 0x10000A2B4, symSize: 0x2C }
  - { offsetInCU: 0x20E7D, offset: 0x20E7D, size: 0x8, addend: 0x0, symName: __ZNSt3__116reverse_iteratorIPNS_6vectorI4gridNS_9allocatorIS2_EEEEEC2B7v160006ES6_, symObjAddr: 0x6180, symBinAddr: 0x10000A2E0, symSize: 0x28 }
  - { offsetInCU: 0x20EB5, offset: 0x20EB5, size: 0x8, addend: 0x0, symName: __ZNSt3__114__split_bufferINS_6vectorI4gridNS_9allocatorIS2_EEEERNS3_IS5_EEED2Ev, symObjAddr: 0x61A8, symBinAddr: 0x10000A308, symSize: 0x8C }
  - { offsetInCU: 0x20EE1, offset: 0x20EE1, size: 0x8, addend: 0x0, symName: __ZNSt3__114__split_bufferINS_6vectorI4gridNS_9allocatorIS2_EEEERNS3_IS5_EEE5clearB7v160006Ev, symObjAddr: 0x6234, symBinAddr: 0x10000A394, symSize: 0x28 }
  - { offsetInCU: 0x20F07, offset: 0x20F07, size: 0x8, addend: 0x0, symName: __ZNSt3__116allocator_traitsINS_9allocatorINS_6vectorI4gridNS1_IS3_EEEEEEE10deallocateB7v160006ERS6_PS5_m, symObjAddr: 0x625C, symBinAddr: 0x10000A3BC, symSize: 0x34 }
  - { offsetInCU: 0x20F49, offset: 0x20F49, size: 0x8, addend: 0x0, symName: __ZNKSt3__114__split_bufferINS_6vectorI4gridNS_9allocatorIS2_EEEERNS3_IS5_EEE8capacityB7v160006Ev, symObjAddr: 0x6290, symBinAddr: 0x10000A3F0, symSize: 0x40 }
  - { offsetInCU: 0x20F6F, offset: 0x20F6F, size: 0x8, addend: 0x0, symName: __ZNSt3__114__split_bufferINS_6vectorI4gridNS_9allocatorIS2_EEEERNS3_IS5_EEE17__destruct_at_endB7v160006EPS5_, symObjAddr: 0x62D0, symBinAddr: 0x10000A430, symSize: 0x2C }
  - { offsetInCU: 0x20FA3, offset: 0x20FA3, size: 0x8, addend: 0x0, symName: __ZNSt3__114__split_bufferINS_6vectorI4gridNS_9allocatorIS2_EEEERNS3_IS5_EEE17__destruct_at_endB7v160006EPS5_NS_17integral_constantIbLb0EEE, symObjAddr: 0x62FC, symBinAddr: 0x10000A45C, symSize: 0x80 }
  - { offsetInCU: 0x20FE3, offset: 0x20FE3, size: 0x8, addend: 0x0, symName: __ZNSt3__19allocatorINS_6vectorI4gridNS0_IS2_EEEEE10deallocateB7v160006EPS4_m, symObjAddr: 0x637C, symBinAddr: 0x10000A4DC, symSize: 0x44 }
  - { offsetInCU: 0x21025, offset: 0x21025, size: 0x8, addend: 0x0, symName: __ZNKSt3__114__split_bufferINS_6vectorI4gridNS_9allocatorIS2_EEEERNS3_IS5_EEE9__end_capB7v160006Ev, symObjAddr: 0x63C0, symBinAddr: 0x10000A520, symSize: 0x28 }
  - { offsetInCU: 0x2104B, offset: 0x2104B, size: 0x8, addend: 0x0, symName: __ZNKSt3__117__compressed_pairIPNS_6vectorI4gridNS_9allocatorIS2_EEEERNS3_IS5_EEE5firstB7v160006Ev, symObjAddr: 0x63E8, symBinAddr: 0x10000A548, symSize: 0x24 }
  - { offsetInCU: 0x21071, offset: 0x21071, size: 0x8, addend: 0x0, symName: __ZNSt3__16vectorI4gridNS_9allocatorIS1_EEEC2B7v160006Ev, symObjAddr: 0x640C, symBinAddr: 0x10000A56C, symSize: 0x54 }
  - { offsetInCU: 0x2109B, offset: 0x2109B, size: 0x8, addend: 0x0, symName: __ZNSt3__117__compressed_pairIP4gridNS_9allocatorIS1_EEEC1B7v160006IDnNS_18__default_init_tagEEEOT_OT0_, symObjAddr: 0x6460, symBinAddr: 0x10000A5C0, symSize: 0x3C }
  - { offsetInCU: 0x210F3, offset: 0x210F3, size: 0x8, addend: 0x0, symName: __ZNSt3__117__compressed_pairIP4gridNS_9allocatorIS1_EEEC2B7v160006IDnNS_18__default_init_tagEEEOT_OT0_, symObjAddr: 0x649C, symBinAddr: 0x10000A5FC, symSize: 0x40 }
  - { offsetInCU: 0x2114B, offset: 0x2114B, size: 0x8, addend: 0x0, symName: __ZNSt3__122__compressed_pair_elemINS_9allocatorI4gridEELi1ELb1EEC2B7v160006ENS_18__default_init_tagE, symObjAddr: 0x64DC, symBinAddr: 0x10000A63C, symSize: 0x2C }
  - { offsetInCU: 0x2117F, offset: 0x2117F, size: 0x8, addend: 0x0, symName: __ZNSt3__19allocatorI4gridEC2B7v160006Ev, symObjAddr: 0x6508, symBinAddr: 0x10000A668, symSize: 0x2C }
  - { offsetInCU: 0x211A9, offset: 0x211A9, size: 0x8, addend: 0x0, symName: __ZNSt3__116__non_trivial_ifILb1ENS_9allocatorI4gridEEEC2B7v160006Ev, symObjAddr: 0x6534, symBinAddr: 0x10000A694, symSize: 0x14 }
  - { offsetInCU: 0x211D3, offset: 0x211D3, size: 0x8, addend: 0x0, symName: __ZNSt3__112basic_stringIcNS_11char_traitsIcEENS_9allocatorIcEEE15__make_iteratorB7v160006EPc, symObjAddr: 0x6548, symBinAddr: 0x10000A6A8, symSize: 0x34 }
  - { offsetInCU: 0x21208, offset: 0x21208, size: 0x8, addend: 0x0, symName: __ZNSt3__112basic_stringIcNS_11char_traitsIcEENS_9allocatorIcEEE13__get_pointerB7v160006Ev, symObjAddr: 0x657C, symBinAddr: 0x10000A6DC, symSize: 0x54 }
  - { offsetInCU: 0x2122E, offset: 0x2122E, size: 0x8, addend: 0x0, symName: __ZNSt3__111__wrap_iterIPcEC1B7v160006EPKvS1_, symObjAddr: 0x65D0, symBinAddr: 0x10000A730, symSize: 0x3C }
  - { offsetInCU: 0x21274, offset: 0x21274, size: 0x8, addend: 0x0, symName: __ZNSt3__111__wrap_iterIPcEC2B7v160006EPKvS1_, symObjAddr: 0x660C, symBinAddr: 0x10000A76C, symSize: 0x24 }
  - { offsetInCU: 0x212BA, offset: 0x212BA, size: 0x8, addend: 0x0, symName: __ZNKSt3__112basic_stringIcNS_11char_traitsIcEENS_9allocatorIcEEE9__is_longB7v160006Ev, symObjAddr: 0x6630, symBinAddr: 0x10000A790, symSize: 0x38 }
  - { offsetInCU: 0x212E0, offset: 0x212E0, size: 0x8, addend: 0x0, symName: __ZNSt3__112basic_stringIcNS_11char_traitsIcEENS_9allocatorIcEEE18__get_long_pointerB7v160006Ev, symObjAddr: 0x6668, symBinAddr: 0x10000A7C8, symSize: 0x28 }
  - { offsetInCU: 0x21306, offset: 0x21306, size: 0x8, addend: 0x0, symName: __ZNSt3__112basic_stringIcNS_11char_traitsIcEENS_9allocatorIcEEE19__get_short_pointerB7v160006Ev, symObjAddr: 0x6690, symBinAddr: 0x10000A7F0, symSize: 0x28 }
  - { offsetInCU: 0x2132C, offset: 0x2132C, size: 0x8, addend: 0x0, symName: __ZNKSt3__117__compressed_pairINS_12basic_stringIcNS_11char_traitsIcEENS_9allocatorIcEEE5__repES5_E5firstB7v160006Ev, symObjAddr: 0x66B8, symBinAddr: 0x10000A818, symSize: 0x24 }
  - { offsetInCU: 0x21352, offset: 0x21352, size: 0x8, addend: 0x0, symName: __ZNKSt3__122__compressed_pair_elemINS_12basic_stringIcNS_11char_traitsIcEENS_9allocatorIcEEE5__repELi0ELb0EE5__getB7v160006Ev, symObjAddr: 0x66DC, symBinAddr: 0x10000A83C, symSize: 0x14 }
  - { offsetInCU: 0x21378, offset: 0x21378, size: 0x8, addend: 0x0, symName: __ZNSt3__114pointer_traitsIPcE10pointer_toB7v160006ERc, symObjAddr: 0x66F0, symBinAddr: 0x10000A850, symSize: 0x14 }
  - { offsetInCU: 0x2139B, offset: 0x2139B, size: 0x8, addend: 0x0, symName: __ZNKSt3__112basic_stringIcNS_11char_traitsIcEENS_9allocatorIcEEE4sizeB7v160006Ev, symObjAddr: 0x6704, symBinAddr: 0x10000A864, symSize: 0x54 }
  - { offsetInCU: 0x213C1, offset: 0x213C1, size: 0x8, addend: 0x0, symName: __ZNKSt3__112basic_stringIcNS_11char_traitsIcEENS_9allocatorIcEEE15__get_long_sizeB7v160006Ev, symObjAddr: 0x6758, symBinAddr: 0x10000A8B8, symSize: 0x28 }
  - { offsetInCU: 0x213E7, offset: 0x213E7, size: 0x8, addend: 0x0, symName: __ZNKSt3__112basic_stringIcNS_11char_traitsIcEENS_9allocatorIcEEE16__get_short_sizeB7v160006Ev, symObjAddr: 0x6780, symBinAddr: 0x10000A8E0, symSize: 0x34 }
  - { offsetInCU: 0x2140D, offset: 0x2140D, size: 0x8, addend: 0x0, symName: __ZNKSt3__111__wrap_iterIPcE4baseB7v160006Ev, symObjAddr: 0x67FC, symBinAddr: 0x10000A95C, symSize: 0x18 }
  - { offsetInCU: 0x21433, offset: 0x21433, size: 0x8, addend: 0x0, symName: __ZNSt3__116reverse_iteratorINS_11__wrap_iterIPNS_6vectorI4gridNS_9allocatorIS3_EEEEEEEC1B7v160006ES8_, symObjAddr: 0x6814, symBinAddr: 0x10000A974, symSize: 0x34 }
  - { offsetInCU: 0x2146B, offset: 0x2146B, size: 0x8, addend: 0x0, symName: __ZNSt3__116reverse_iteratorINS_11__wrap_iterIPNS_6vectorI4gridNS_9allocatorIS3_EEEEEEEC2B7v160006ES8_, symObjAddr: 0x6848, symBinAddr: 0x10000A9A8, symSize: 0x28 }
  - { offsetInCU: 0x214A3, offset: 0x214A3, size: 0x8, addend: 0x0, symName: __ZNKSt3__111__wrap_iterIPNS_6vectorI4gridNS_9allocatorIS2_EEEEEptB7v160006Ev, symObjAddr: 0x68C8, symBinAddr: 0x10000AA28, symSize: 0x28 }
  - { offsetInCU: 0x214C9, offset: 0x214C9, size: 0x8, addend: 0x0, symName: __ZNSt3__111__wrap_iterIPNS_6vectorI4gridNS_9allocatorIS2_EEEEEpLB7v160006El, symObjAddr: 0x696C, symBinAddr: 0x10000AACC, symSize: 0x30 }
  - { offsetInCU: 0x21502, offset: 0x21502, size: 0x8, addend: 0x0, symName: __ZNSt3__16vectorI4gridNS_9allocatorIS1_EEE22__construct_one_at_endB7v160006IJS1_EEEvDpOT_, symObjAddr: 0x699C, symBinAddr: 0x10000AAFC, symSize: 0x90 }
  - { offsetInCU: 0x21551, offset: 0x21551, size: 0x8, addend: 0x0, symName: __ZNSt3__16vectorI4gridNS_9allocatorIS1_EEE21__push_back_slow_pathIS1_EEvOT_, symObjAddr: 0x6A2C, symBinAddr: 0x10000AB8C, symSize: 0xD8 }
  - { offsetInCU: 0x215AF, offset: 0x215AF, size: 0x8, addend: 0x0, symName: __ZNSt3__116allocator_traitsINS_9allocatorI4gridEEE9constructB7v160006IS2_JS2_EvvEEvRS3_PT_DpOT0_, symObjAddr: 0x6B04, symBinAddr: 0x10000AC64, symSize: 0x30 }
  - { offsetInCU: 0x21603, offset: 0x21603, size: 0x8, addend: 0x0, symName: __ZNKSt3__16vectorI4gridNS_9allocatorIS1_EEE11__recommendB7v160006Em, symObjAddr: 0x6B60, symBinAddr: 0x10000ACC0, symSize: 0xB4 }
  - { offsetInCU: 0x21658, offset: 0x21658, size: 0x8, addend: 0x0, symName: __ZNSt3__114__split_bufferI4gridRNS_9allocatorIS1_EEEC1EmmS4_, symObjAddr: 0x6C14, symBinAddr: 0x10000AD74, symSize: 0x44 }
  - { offsetInCU: 0x216AE, offset: 0x216AE, size: 0x8, addend: 0x0, symName: __ZNSt3__114__split_bufferI4gridRNS_9allocatorIS1_EEED1Ev, symObjAddr: 0x6D70, symBinAddr: 0x10000AED0, symSize: 0x2C }
  - { offsetInCU: 0x216DA, offset: 0x216DA, size: 0x8, addend: 0x0, symName: __ZNSt3__114__split_bufferI4gridRNS_9allocatorIS1_EEEC2EmmS4_, symObjAddr: 0x6D9C, symBinAddr: 0x10000AEFC, symSize: 0xD4 }
  - { offsetInCU: 0x2174D, offset: 0x2174D, size: 0x8, addend: 0x0, symName: __ZNSt3__117__compressed_pairIP4gridRNS_9allocatorIS1_EEEC1B7v160006IDnS5_EEOT_OT0_, symObjAddr: 0x6E70, symBinAddr: 0x10000AFD0, symSize: 0x3C }
  - { offsetInCU: 0x217A5, offset: 0x217A5, size: 0x8, addend: 0x0, symName: __ZNSt3__114__split_bufferI4gridRNS_9allocatorIS1_EEE7__allocB7v160006Ev, symObjAddr: 0x6EAC, symBinAddr: 0x10000B00C, symSize: 0x28 }
  - { offsetInCU: 0x217CB, offset: 0x217CB, size: 0x8, addend: 0x0, symName: __ZNSt3__114__split_bufferI4gridRNS_9allocatorIS1_EEE9__end_capB7v160006Ev, symObjAddr: 0x6ED4, symBinAddr: 0x10000B034, symSize: 0x28 }
  - { offsetInCU: 0x217F1, offset: 0x217F1, size: 0x8, addend: 0x0, symName: __ZNSt3__117__compressed_pairIP4gridRNS_9allocatorIS1_EEEC2B7v160006IDnS5_EEOT_OT0_, symObjAddr: 0x6EFC, symBinAddr: 0x10000B05C, symSize: 0x48 }
  - { offsetInCU: 0x21849, offset: 0x21849, size: 0x8, addend: 0x0, symName: __ZNSt3__122__compressed_pair_elemIRNS_9allocatorI4gridEELi1ELb0EEC2B7v160006IS4_vEEOT_, symObjAddr: 0x6F44, symBinAddr: 0x10000B0A4, symSize: 0x20 }
  - { offsetInCU: 0x2188B, offset: 0x2188B, size: 0x8, addend: 0x0, symName: __ZNSt3__117__compressed_pairIP4gridRNS_9allocatorIS1_EEE6secondB7v160006Ev, symObjAddr: 0x6F64, symBinAddr: 0x10000B0C4, symSize: 0x28 }
  - { offsetInCU: 0x218B1, offset: 0x218B1, size: 0x8, addend: 0x0, symName: __ZNSt3__122__compressed_pair_elemIRNS_9allocatorI4gridEELi1ELb0EE5__getB7v160006Ev, symObjAddr: 0x6F8C, symBinAddr: 0x10000B0EC, symSize: 0x18 }
  - { offsetInCU: 0x218D7, offset: 0x218D7, size: 0x8, addend: 0x0, symName: __ZNSt3__117__compressed_pairIP4gridRNS_9allocatorIS1_EEE5firstB7v160006Ev, symObjAddr: 0x6FA4, symBinAddr: 0x10000B104, symSize: 0x24 }
  - { offsetInCU: 0x21920, offset: 0x21920, size: 0x8, addend: 0x0, symName: __ZNKSt3__111__move_loopINS_17_ClassicAlgPolicyEEclB7v160006INS_16reverse_iteratorIP4gridEES7_S7_EENS_4pairIT_T1_EES9_T0_SA_, symObjAddr: 0x7344, symBinAddr: 0x10000B4A4, symSize: 0xA0 }
  - { offsetInCU: 0x2198B, offset: 0x2198B, size: 0x8, addend: 0x0, symName: __ZNSt3__119__unwrap_range_implINS_16reverse_iteratorIP4gridEES4_E8__unwrapB7v160006ES4_S4_, symObjAddr: 0x7530, symBinAddr: 0x10000B690, symSize: 0x84 }
  - { offsetInCU: 0x219C1, offset: 0x219C1, size: 0x8, addend: 0x0, symName: __ZNSt3__14pairINS_16reverse_iteratorIP4gridEES4_EC1B7v160006IS4_S4_LPv0EEEOT_OT0_, symObjAddr: 0x75B4, symBinAddr: 0x10000B714, symSize: 0x3C }
  - { offsetInCU: 0x21A1F, offset: 0x21A1F, size: 0x8, addend: 0x0, symName: __ZNSt3__14pairINS_16reverse_iteratorIP4gridEES4_EC2B7v160006IS4_S4_LPv0EEEOT_OT0_, symObjAddr: 0x75F0, symBinAddr: 0x10000B750, symSize: 0x34 }
  - { offsetInCU: 0x21A7D, offset: 0x21A7D, size: 0x8, addend: 0x0, symName: __ZNSt3__18_IterOpsINS_17_ClassicAlgPolicyEE11__iter_moveB7v160006IRNS_16reverse_iteratorIP4gridEEEENS_9enable_ifIXsr12is_referenceIDTdeclsr3stdE7declvalIRT_EEEEE5valueEDTclsr3stdE4movedeclsr3stdE7declvalISB_EEEEE4typeEOSA_, symObjAddr: 0x7624, symBinAddr: 0x10000B784, symSize: 0x28 }
  - { offsetInCU: 0x21AA9, offset: 0x21AA9, size: 0x8, addend: 0x0, symName: __ZNKSt3__116reverse_iteratorIP4gridEdeB7v160006Ev, symObjAddr: 0x764C, symBinAddr: 0x10000B7AC, symSize: 0x28 }
  - { offsetInCU: 0x21ADD, offset: 0x21ADD, size: 0x8, addend: 0x0, symName: __ZNSt3__18_IterOpsINS_17_ClassicAlgPolicyEE25__validate_iter_referenceB7v160006IRNS_16reverse_iteratorIP4gridEEEEvv, symObjAddr: 0x7674, symBinAddr: 0x10000B7D4, symSize: 0x4 }
  - { offsetInCU: 0x21AFB, offset: 0x21AFB, size: 0x8, addend: 0x0, symName: __ZNSt3__118__unwrap_iter_implINS_16reverse_iteratorIP4gridEELb0EE8__unwrapB7v160006ES4_, symObjAddr: 0x7678, symBinAddr: 0x10000B7D8, symSize: 0x24 }
  - { offsetInCU: 0x21B1E, offset: 0x21B1E, size: 0x8, addend: 0x0, symName: __ZNSt3__119__unwrap_range_implINS_16reverse_iteratorIP4gridEES4_E8__rewrapB7v160006ES4_S4_, symObjAddr: 0x769C, symBinAddr: 0x10000B7FC, symSize: 0x5C }
  - { offsetInCU: 0x21B4F, offset: 0x21B4F, size: 0x8, addend: 0x0, symName: __ZNSt3__118__unwrap_iter_implINS_16reverse_iteratorIP4gridEELb0EE8__rewrapB7v160006ES4_S4_, symObjAddr: 0x76F8, symBinAddr: 0x10000B858, symSize: 0x2C }
  - { offsetInCU: 0x21B7C, offset: 0x21B7C, size: 0x8, addend: 0x0, symName: __ZNSt3__114__split_bufferI4gridRNS_9allocatorIS1_EEED2Ev, symObjAddr: 0x7724, symBinAddr: 0x10000B884, symSize: 0x8C }
  - { offsetInCU: 0x21BA8, offset: 0x21BA8, size: 0x8, addend: 0x0, symName: __ZNSt3__114__split_bufferI4gridRNS_9allocatorIS1_EEE5clearB7v160006Ev, symObjAddr: 0x77B0, symBinAddr: 0x10000B910, symSize: 0x28 }
  - { offsetInCU: 0x21BCE, offset: 0x21BCE, size: 0x8, addend: 0x0, symName: __ZNKSt3__114__split_bufferI4gridRNS_9allocatorIS1_EEE8capacityB7v160006Ev, symObjAddr: 0x77D8, symBinAddr: 0x10000B938, symSize: 0x40 }
  - { offsetInCU: 0x21BF4, offset: 0x21BF4, size: 0x8, addend: 0x0, symName: __ZNSt3__114__split_bufferI4gridRNS_9allocatorIS1_EEE17__destruct_at_endB7v160006EPS1_, symObjAddr: 0x7818, symBinAddr: 0x10000B978, symSize: 0x2C }
  - { offsetInCU: 0x21C28, offset: 0x21C28, size: 0x8, addend: 0x0, symName: __ZNSt3__114__split_bufferI4gridRNS_9allocatorIS1_EEE17__destruct_at_endB7v160006EPS1_NS_17integral_constantIbLb0EEE, symObjAddr: 0x7844, symBinAddr: 0x10000B9A4, symSize: 0x80 }
  - { offsetInCU: 0x21C68, offset: 0x21C68, size: 0x8, addend: 0x0, symName: __ZNKSt3__114__split_bufferI4gridRNS_9allocatorIS1_EEE9__end_capB7v160006Ev, symObjAddr: 0x78C4, symBinAddr: 0x10000BA24, symSize: 0x28 }
  - { offsetInCU: 0x21C8E, offset: 0x21C8E, size: 0x8, addend: 0x0, symName: __ZNKSt3__117__compressed_pairIP4gridRNS_9allocatorIS1_EEE5firstB7v160006Ev, symObjAddr: 0x78EC, symBinAddr: 0x10000BA4C, symSize: 0x24 }
  - { offsetInCU: 0x21CB4, offset: 0x21CB4, size: 0x8, addend: 0x0, symName: __ZNSt3__16vectorIiNS_9allocatorIiEEE9__end_capB7v160006Ev, symObjAddr: 0x7910, symBinAddr: 0x10000BA70, symSize: 0x28 }
  - { offsetInCU: 0x21CDA, offset: 0x21CDA, size: 0x8, addend: 0x0, symName: __ZNSt3__16vectorIiNS_9allocatorIiEEE22__construct_one_at_endB7v160006IJRKiEEEvDpOT_, symObjAddr: 0x7938, symBinAddr: 0x10000BA98, symSize: 0x90 }
  - { offsetInCU: 0x21D29, offset: 0x21D29, size: 0x8, addend: 0x0, symName: __ZNSt3__16vectorIiNS_9allocatorIiEEE21__push_back_slow_pathIRKiEEvOT_, symObjAddr: 0x79C8, symBinAddr: 0x10000BB28, symSize: 0xD8 }
  - { offsetInCU: 0x21D87, offset: 0x21D87, size: 0x8, addend: 0x0, symName: __ZNSt3__117__compressed_pairIPiNS_9allocatorIiEEE5firstB7v160006Ev, symObjAddr: 0x7AA0, symBinAddr: 0x10000BC00, symSize: 0x24 }
  - { offsetInCU: 0x21DAD, offset: 0x21DAD, size: 0x8, addend: 0x0, symName: __ZNSt3__122__compressed_pair_elemIPiLi0ELb0EE5__getB7v160006Ev, symObjAddr: 0x7AC4, symBinAddr: 0x10000BC24, symSize: 0x14 }
  - { offsetInCU: 0x21DEC, offset: 0x21DEC, size: 0x8, addend: 0x0, symName: __ZNSt3__16vectorIiNS_9allocatorIiEEE21_ConstructTransactionC1B7v160006ERS3_m, symObjAddr: 0x7AD8, symBinAddr: 0x10000BC38, symSize: 0x3C }
  - { offsetInCU: 0x21E34, offset: 0x21E34, size: 0x8, addend: 0x0, symName: __ZNSt3__116allocator_traitsINS_9allocatorIiEEE9constructB7v160006IiJRKiEvvEEvRS2_PT_DpOT0_, symObjAddr: 0x7B14, symBinAddr: 0x10000BC74, symSize: 0x30 }
  - { offsetInCU: 0x21E88, offset: 0x21E88, size: 0x8, addend: 0x0, symName: __ZNSt3__16vectorIiNS_9allocatorIiEEE21_ConstructTransactionD1B7v160006Ev, symObjAddr: 0x7B44, symBinAddr: 0x10000BCA4, symSize: 0x2C }
  - { offsetInCU: 0x21EB2, offset: 0x21EB2, size: 0x8, addend: 0x0, symName: __ZNSt3__16vectorIiNS_9allocatorIiEEE21_ConstructTransactionC2B7v160006ERS3_m, symObjAddr: 0x7B70, symBinAddr: 0x10000BCD0, symSize: 0x44 }
  - { offsetInCU: 0x21EFA, offset: 0x21EFA, size: 0x8, addend: 0x0, symName: __ZNSt3__16vectorIiNS_9allocatorIiEEE21_ConstructTransactionD2B7v160006Ev, symObjAddr: 0x7BE0, symBinAddr: 0x10000BD40, symSize: 0x20 }
  - { offsetInCU: 0x21F24, offset: 0x21F24, size: 0x8, addend: 0x0, symName: __ZNKSt3__16vectorIiNS_9allocatorIiEEE11__recommendB7v160006Em, symObjAddr: 0x7C00, symBinAddr: 0x10000BD60, symSize: 0xB4 }
  - { offsetInCU: 0x21F79, offset: 0x21F79, size: 0x8, addend: 0x0, symName: __ZNSt3__114__split_bufferIiRNS_9allocatorIiEEEC1EmmS3_, symObjAddr: 0x7CB4, symBinAddr: 0x10000BE14, symSize: 0x44 }
  - { offsetInCU: 0x21FCF, offset: 0x21FCF, size: 0x8, addend: 0x0, symName: __ZNSt3__114__split_bufferIiRNS_9allocatorIiEEED1Ev, symObjAddr: 0x7E10, symBinAddr: 0x10000BF70, symSize: 0x2C }
  - { offsetInCU: 0x21FFB, offset: 0x21FFB, size: 0x8, addend: 0x0, symName: __ZNKSt3__16vectorIiNS_9allocatorIiEEE8max_sizeEv, symObjAddr: 0x7E3C, symBinAddr: 0x10000BF9C, symSize: 0x60 }
  - { offsetInCU: 0x22023, offset: 0x22023, size: 0x8, addend: 0x0, symName: __ZNKSt3__16vectorIiNS_9allocatorIiEEE20__throw_length_errorB7v160006Ev, symObjAddr: 0x7E9C, symBinAddr: 0x10000BFFC, symSize: 0x1C }
  - { offsetInCU: 0x22053, offset: 0x22053, size: 0x8, addend: 0x0, symName: __ZNSt3__116allocator_traitsINS_9allocatorIiEEE8max_sizeB7v160006IS2_vvEEmRKS2_, symObjAddr: 0x7EB8, symBinAddr: 0x10000C018, symSize: 0x28 }
  - { offsetInCU: 0x2207E, offset: 0x2207E, size: 0x8, addend: 0x0, symName: __ZNKSt3__16vectorIiNS_9allocatorIiEEE7__allocB7v160006Ev, symObjAddr: 0x7EE0, symBinAddr: 0x10000C040, symSize: 0x28 }
  - { offsetInCU: 0x220A4, offset: 0x220A4, size: 0x8, addend: 0x0, symName: __ZNKSt3__117__compressed_pairIPiNS_9allocatorIiEEE6secondB7v160006Ev, symObjAddr: 0x7F08, symBinAddr: 0x10000C068, symSize: 0x24 }
  - { offsetInCU: 0x220CA, offset: 0x220CA, size: 0x8, addend: 0x0, symName: __ZNKSt3__122__compressed_pair_elemINS_9allocatorIiEELi1ELb1EE5__getB7v160006Ev, symObjAddr: 0x7F2C, symBinAddr: 0x10000C08C, symSize: 0x14 }
  - { offsetInCU: 0x220F0, offset: 0x220F0, size: 0x8, addend: 0x0, symName: __ZNSt3__114__split_bufferIiRNS_9allocatorIiEEEC2EmmS3_, symObjAddr: 0x7F40, symBinAddr: 0x10000C0A0, symSize: 0xD4 }
  - { offsetInCU: 0x22163, offset: 0x22163, size: 0x8, addend: 0x0, symName: __ZNSt3__117__compressed_pairIPiRNS_9allocatorIiEEEC1B7v160006IDnS4_EEOT_OT0_, symObjAddr: 0x8014, symBinAddr: 0x10000C174, symSize: 0x3C }
  - { offsetInCU: 0x221BB, offset: 0x221BB, size: 0x8, addend: 0x0, symName: __ZNSt3__114__split_bufferIiRNS_9allocatorIiEEE7__allocB7v160006Ev, symObjAddr: 0x8090, symBinAddr: 0x10000C1F0, symSize: 0x28 }
  - { offsetInCU: 0x221E1, offset: 0x221E1, size: 0x8, addend: 0x0, symName: __ZNSt3__114__split_bufferIiRNS_9allocatorIiEEE9__end_capB7v160006Ev, symObjAddr: 0x80B8, symBinAddr: 0x10000C218, symSize: 0x28 }
  - { offsetInCU: 0x22207, offset: 0x22207, size: 0x8, addend: 0x0, symName: __ZNSt3__117__compressed_pairIPiRNS_9allocatorIiEEEC2B7v160006IDnS4_EEOT_OT0_, symObjAddr: 0x80E0, symBinAddr: 0x10000C240, symSize: 0x48 }
  - { offsetInCU: 0x2225F, offset: 0x2225F, size: 0x8, addend: 0x0, symName: __ZNSt3__122__compressed_pair_elemIPiLi0ELb0EEC2B7v160006IDnvEEOT_, symObjAddr: 0x8128, symBinAddr: 0x10000C288, symSize: 0x1C }
  - { offsetInCU: 0x222A1, offset: 0x222A1, size: 0x8, addend: 0x0, symName: __ZNSt3__122__compressed_pair_elemIRNS_9allocatorIiEELi1ELb0EEC2B7v160006IS3_vEEOT_, symObjAddr: 0x8144, symBinAddr: 0x10000C2A4, symSize: 0x20 }
  - { offsetInCU: 0x222E3, offset: 0x222E3, size: 0x8, addend: 0x0, symName: __ZNSt3__19allocatorIiE8allocateB7v160006Em, symObjAddr: 0x8164, symBinAddr: 0x10000C2C4, symSize: 0x58 }
  - { offsetInCU: 0x22317, offset: 0x22317, size: 0x8, addend: 0x0, symName: __ZNSt3__117__compressed_pairIPiRNS_9allocatorIiEEE6secondB7v160006Ev, symObjAddr: 0x81BC, symBinAddr: 0x10000C31C, symSize: 0x28 }
  - { offsetInCU: 0x2233D, offset: 0x2233D, size: 0x8, addend: 0x0, symName: __ZNSt3__122__compressed_pair_elemIRNS_9allocatorIiEELi1ELb0EE5__getB7v160006Ev, symObjAddr: 0x81E4, symBinAddr: 0x10000C344, symSize: 0x18 }
  - { offsetInCU: 0x22363, offset: 0x22363, size: 0x8, addend: 0x0, symName: __ZNSt3__117__compressed_pairIPiRNS_9allocatorIiEEE5firstB7v160006Ev, symObjAddr: 0x81FC, symBinAddr: 0x10000C35C, symSize: 0x24 }
  - { offsetInCU: 0x22389, offset: 0x22389, size: 0x8, addend: 0x0, symName: __ZNSt3__116reverse_iteratorIPiEC1B7v160006ES1_, symObjAddr: 0x8298, symBinAddr: 0x10000C3F8, symSize: 0x34 }
  - { offsetInCU: 0x223C1, offset: 0x223C1, size: 0x8, addend: 0x0, symName: __ZNKSt3__116reverse_iteratorIPiE4baseB7v160006Ev, symObjAddr: 0x82CC, symBinAddr: 0x10000C42C, symSize: 0x18 }
  - { offsetInCU: 0x223E7, offset: 0x223E7, size: 0x8, addend: 0x0, symName: __ZNKSt3__16vectorIiNS_9allocatorIiEEE14__annotate_newB7v160006Em, symObjAddr: 0x8320, symBinAddr: 0x10000C480, symSize: 0xAC }
  - { offsetInCU: 0x22435, offset: 0x22435, size: 0x8, addend: 0x0, symName: __ZNKSt3__111__move_loopINS_17_ClassicAlgPolicyEEclB7v160006INS_16reverse_iteratorIPiEES6_S6_EENS_4pairIT_T1_EES8_T0_S9_, symObjAddr: 0x8694, symBinAddr: 0x10000C7F4, symSize: 0xA0 }
  - { offsetInCU: 0x224A0, offset: 0x224A0, size: 0x8, addend: 0x0, symName: __ZNSt3__119__unwrap_range_implINS_16reverse_iteratorIPiEES3_E8__unwrapB7v160006ES3_S3_, symObjAddr: 0x8880, symBinAddr: 0x10000C9E0, symSize: 0x84 }
  - { offsetInCU: 0x224D6, offset: 0x224D6, size: 0x8, addend: 0x0, symName: __ZNSt3__14pairINS_16reverse_iteratorIPiEES3_EC1B7v160006IS3_S3_LPv0EEEOT_OT0_, symObjAddr: 0x8904, symBinAddr: 0x10000CA64, symSize: 0x3C }
  - { offsetInCU: 0x22534, offset: 0x22534, size: 0x8, addend: 0x0, symName: __ZNSt3__14pairINS_16reverse_iteratorIPiEES3_EC2B7v160006IS3_S3_LPv0EEEOT_OT0_, symObjAddr: 0x8940, symBinAddr: 0x10000CAA0, symSize: 0x34 }
  - { offsetInCU: 0x22597, offset: 0x22597, size: 0x8, addend: 0x0, symName: __ZNSt3__18_IterOpsINS_17_ClassicAlgPolicyEE11__iter_moveB7v160006IRNS_16reverse_iteratorIPiEEEENS_9enable_ifIXsr12is_referenceIDTdeclsr3stdE7declvalIRT_EEEEE5valueEDTclsr3stdE4movedeclsr3stdE7declvalISA_EEEEE4typeEOS9_, symObjAddr: 0x89BC, symBinAddr: 0x10000CB1C, symSize: 0x28 }
  - { offsetInCU: 0x225C3, offset: 0x225C3, size: 0x8, addend: 0x0, symName: __ZNKSt3__116reverse_iteratorIPiEdeB7v160006Ev, symObjAddr: 0x89E4, symBinAddr: 0x10000CB44, symSize: 0x28 }
  - { offsetInCU: 0x225F7, offset: 0x225F7, size: 0x8, addend: 0x0, symName: __ZNSt3__116reverse_iteratorIPiEppB7v160006Ev, symObjAddr: 0x8A0C, symBinAddr: 0x10000CB6C, symSize: 0x20 }
  - { offsetInCU: 0x2261D, offset: 0x2261D, size: 0x8, addend: 0x0, symName: __ZNSt3__18_IterOpsINS_17_ClassicAlgPolicyEE25__validate_iter_referenceB7v160006IRNS_16reverse_iteratorIPiEEEEvv, symObjAddr: 0x8A2C, symBinAddr: 0x10000CB8C, symSize: 0x4 }
  - { offsetInCU: 0x2263B, offset: 0x2263B, size: 0x8, addend: 0x0, symName: __ZNSt3__118__unwrap_iter_implINS_16reverse_iteratorIPiEELb0EE8__unwrapB7v160006ES3_, symObjAddr: 0x8A30, symBinAddr: 0x10000CB90, symSize: 0x24 }
  - { offsetInCU: 0x2265E, offset: 0x2265E, size: 0x8, addend: 0x0, symName: __ZNSt3__119__unwrap_range_implINS_16reverse_iteratorIPiEES3_E8__rewrapB7v160006ES3_S3_, symObjAddr: 0x8A54, symBinAddr: 0x10000CBB4, symSize: 0x5C }
  - { offsetInCU: 0x2268F, offset: 0x2268F, size: 0x8, addend: 0x0, symName: __ZNSt3__118__unwrap_iter_implINS_16reverse_iteratorIPiEELb0EE8__rewrapB7v160006ES3_S3_, symObjAddr: 0x8AB0, symBinAddr: 0x10000CC10, symSize: 0x2C }
  - { offsetInCU: 0x226BC, offset: 0x226BC, size: 0x8, addend: 0x0, symName: __ZNSt3__116reverse_iteratorIPiEC2B7v160006ES1_, symObjAddr: 0x8ADC, symBinAddr: 0x10000CC3C, symSize: 0x28 }
  - { offsetInCU: 0x226F4, offset: 0x226F4, size: 0x8, addend: 0x0, symName: __ZNSt3__114__split_bufferIiRNS_9allocatorIiEEED2Ev, symObjAddr: 0x8B04, symBinAddr: 0x10000CC64, symSize: 0x8C }
  - { offsetInCU: 0x22720, offset: 0x22720, size: 0x8, addend: 0x0, symName: __ZNSt3__114__split_bufferIiRNS_9allocatorIiEEE5clearB7v160006Ev, symObjAddr: 0x8B90, symBinAddr: 0x10000CCF0, symSize: 0x28 }
  - { offsetInCU: 0x22746, offset: 0x22746, size: 0x8, addend: 0x0, symName: __ZNKSt3__114__split_bufferIiRNS_9allocatorIiEEE8capacityB7v160006Ev, symObjAddr: 0x8BB8, symBinAddr: 0x10000CD18, symSize: 0x40 }
  - { offsetInCU: 0x2276C, offset: 0x2276C, size: 0x8, addend: 0x0, symName: __ZNSt3__114__split_bufferIiRNS_9allocatorIiEEE17__destruct_at_endB7v160006EPi, symObjAddr: 0x8BF8, symBinAddr: 0x10000CD58, symSize: 0x2C }
  - { offsetInCU: 0x227A0, offset: 0x227A0, size: 0x8, addend: 0x0, symName: __ZNSt3__114__split_bufferIiRNS_9allocatorIiEEE17__destruct_at_endB7v160006EPiNS_17integral_constantIbLb0EEE, symObjAddr: 0x8C24, symBinAddr: 0x10000CD84, symSize: 0x80 }
  - { offsetInCU: 0x227E0, offset: 0x227E0, size: 0x8, addend: 0x0, symName: __ZNKSt3__114__split_bufferIiRNS_9allocatorIiEEE9__end_capB7v160006Ev, symObjAddr: 0x8CA4, symBinAddr: 0x10000CE04, symSize: 0x28 }
  - { offsetInCU: 0x22806, offset: 0x22806, size: 0x8, addend: 0x0, symName: __ZNKSt3__117__compressed_pairIPiRNS_9allocatorIiEEE5firstB7v160006Ev, symObjAddr: 0x8CCC, symBinAddr: 0x10000CE2C, symSize: 0x24 }
  - { offsetInCU: 0x2282C, offset: 0x2282C, size: 0x8, addend: 0x0, symName: __ZNSt3__16vectorINS0_I4gridNS_9allocatorIS1_EEEENS2_IS4_EEED2B7v160006Ev, symObjAddr: 0x8CF0, symBinAddr: 0x10000CE50, symSize: 0x44 }
  - { offsetInCU: 0x22856, offset: 0x22856, size: 0x8, addend: 0x0, symName: __ZNSt3__16vectorINS0_I4gridNS_9allocatorIS1_EEEENS2_IS4_EEE16__destroy_vectorC1ERS6_, symObjAddr: 0x8D34, symBinAddr: 0x10000CE94, symSize: 0x34 }
  - { offsetInCU: 0x2288F, offset: 0x2288F, size: 0x8, addend: 0x0, symName: __ZNSt3__16vectorINS0_I4gridNS_9allocatorIS1_EEEENS2_IS4_EEE16__destroy_vectorclB7v160006Ev, symObjAddr: 0x8D68, symBinAddr: 0x10000CEC8, symSize: 0x9C }
  - { offsetInCU: 0x228B5, offset: 0x228B5, size: 0x8, addend: 0x0, symName: __ZNSt3__16vectorINS0_I4gridNS_9allocatorIS1_EEEENS2_IS4_EEE16__destroy_vectorC2ERS6_, symObjAddr: 0x8E04, symBinAddr: 0x10000CF64, symSize: 0x20 }
  - { offsetInCU: 0x228EE, offset: 0x228EE, size: 0x8, addend: 0x0, symName: __ZNSt3__16vectorINS0_I4gridNS_9allocatorIS1_EEEENS2_IS4_EEE7__clearB7v160006Ev, symObjAddr: 0x8E34, symBinAddr: 0x10000CF94, symSize: 0x28 }
  - { offsetInCU: 0x22914, offset: 0x22914, size: 0x8, addend: 0x0, symName: __ZNSt3__16vectorINS0_I4gridNS_9allocatorIS1_EEEENS2_IS4_EEE22__base_destruct_at_endB7v160006EPS4_, symObjAddr: 0x8E5C, symBinAddr: 0x10000CFBC, symSize: 0x8C }
  - { offsetInCU: 0x22958, offset: 0x22958, size: 0x8, addend: 0x0, symName: __ZNSt3__114basic_ifstreamIcNS_11char_traitsIcEEED2Ev, symObjAddr: 0x8EE8, symBinAddr: 0x10000D048, symSize: 0x64 }
  - { offsetInCU: 0x22992, offset: 0x22992, size: 0x8, addend: 0x0, symName: __ZTv0_n24_NSt3__114basic_ifstreamIcNS_11char_traitsIcEEED1Ev, symObjAddr: 0x8F4C, symBinAddr: 0x10000D0AC, symSize: 0x28 }
  - { offsetInCU: 0x229C7, offset: 0x229C7, size: 0x8, addend: 0x0, symName: __ZNKSt3__113basic_ostreamIcNS_11char_traitsIcEEE6sentrycvbB7v160006Ev, symObjAddr: 0x9160, symBinAddr: 0x10000D2C0, symSize: 0x1C }
  - { offsetInCU: 0x229ED, offset: 0x229ED, size: 0x8, addend: 0x0, symName: __ZNSt3__119ostreambuf_iteratorIcNS_11char_traitsIcEEEC1B7v160006ERNS_13basic_ostreamIcS2_EE, symObjAddr: 0x93BC, symBinAddr: 0x10000D51C, symSize: 0x34 }
  - { offsetInCU: 0x22A25, offset: 0x22A25, size: 0x8, addend: 0x0, symName: __ZNKSt3__18ios_base5flagsB7v160006Ev, symObjAddr: 0x93F0, symBinAddr: 0x10000D550, symSize: 0x18 }
  - { offsetInCU: 0x22A4D, offset: 0x22A4D, size: 0x8, addend: 0x0, symName: __ZNKSt3__19basic_iosIcNS_11char_traitsIcEEE4fillB7v160006Ev, symObjAddr: 0x9408, symBinAddr: 0x10000D568, symSize: 0x64 }
  - { offsetInCU: 0x22A75, offset: 0x22A75, size: 0x8, addend: 0x0, symName: __ZNKSt3__119ostreambuf_iteratorIcNS_11char_traitsIcEEE6failedB7v160006Ev, symObjAddr: 0x946C, symBinAddr: 0x10000D5CC, symSize: 0x24 }
  - { offsetInCU: 0x22A9B, offset: 0x22A9B, size: 0x8, addend: 0x0, symName: __ZNSt3__19basic_iosIcNS_11char_traitsIcEEE8setstateB7v160006Ej, symObjAddr: 0x9490, symBinAddr: 0x10000D5F0, symSize: 0x2C }
  - { offsetInCU: 0x22AD0, offset: 0x22AD0, size: 0x8, addend: 0x0, symName: __ZNKSt3__18ios_base5widthB7v160006Ev, symObjAddr: 0x94BC, symBinAddr: 0x10000D61C, symSize: 0x18 }
  - { offsetInCU: 0x22AF8, offset: 0x22AF8, size: 0x8, addend: 0x0, symName: __ZNSt3__115basic_streambufIcNS_11char_traitsIcEEE5sputnB7v160006EPKcl, symObjAddr: 0x94D4, symBinAddr: 0x10000D634, symSize: 0x3C }
  - { offsetInCU: 0x22B3A, offset: 0x22B3A, size: 0x8, addend: 0x0, symName: __ZNSt3__112basic_stringIcNS_11char_traitsIcEENS_9allocatorIcEEEC1B7v160006Emc, symObjAddr: 0x9510, symBinAddr: 0x10000D670, symSize: 0x3C }
  - { offsetInCU: 0x22B82, offset: 0x22B82, size: 0x8, addend: 0x0, symName: __ZNSt3__112basic_stringIcNS_11char_traitsIcEENS_9allocatorIcEEE4dataB7v160006Ev, symObjAddr: 0x954C, symBinAddr: 0x10000D6AC, symSize: 0x28 }
  - { offsetInCU: 0x22BA8, offset: 0x22BA8, size: 0x8, addend: 0x0, symName: __ZNSt3__18ios_base5widthB7v160006El, symObjAddr: 0x9574, symBinAddr: 0x10000D6D4, symSize: 0x2C }
  - { offsetInCU: 0x22BEE, offset: 0x22BEE, size: 0x8, addend: 0x0, symName: __ZNSt3__112basic_stringIcNS_11char_traitsIcEENS_9allocatorIcEEEC2B7v160006Emc, symObjAddr: 0x95A0, symBinAddr: 0x10000D700, symSize: 0x54 }
  - { offsetInCU: 0x22C36, offset: 0x22C36, size: 0x8, addend: 0x0, symName: __ZNSt3__119ostreambuf_iteratorIcNS_11char_traitsIcEEEC2B7v160006ERNS_13basic_ostreamIcS2_EE, symObjAddr: 0x9608, symBinAddr: 0x10000D768, symSize: 0x54 }
  - { offsetInCU: 0x22C6E, offset: 0x22C6E, size: 0x8, addend: 0x0, symName: __ZNKSt3__19basic_iosIcNS_11char_traitsIcEEE5rdbufB7v160006Ev, symObjAddr: 0x965C, symBinAddr: 0x10000D7BC, symSize: 0x24 }
  - { offsetInCU: 0x22C96, offset: 0x22C96, size: 0x8, addend: 0x0, symName: __ZNKSt3__18ios_base5rdbufB7v160006Ev, symObjAddr: 0x9680, symBinAddr: 0x10000D7E0, symSize: 0x18 }
  - { offsetInCU: 0x22CBC, offset: 0x22CBC, size: 0x8, addend: 0x0, symName: __ZNSt3__111char_traitsIcE11eq_int_typeEii, symObjAddr: 0x9698, symBinAddr: 0x10000D7F8, symSize: 0x28 }
  - { offsetInCU: 0x22CED, offset: 0x22CED, size: 0x8, addend: 0x0, symName: __ZNSt3__111char_traitsIcE3eofEv, symObjAddr: 0x96C0, symBinAddr: 0x10000D820, symSize: 0x8 }
  - { offsetInCU: 0x22D01, offset: 0x22D01, size: 0x8, addend: 0x0, symName: __ZNKSt3__19basic_iosIcNS_11char_traitsIcEEE5widenB7v160006Ec, symObjAddr: 0x96C8, symBinAddr: 0x10000D828, symSize: 0x84 }
  - { offsetInCU: 0x22D6F, offset: 0x22D6F, size: 0x8, addend: 0x0, symName: __ZNKSt3__15ctypeIcE5widenB7v160006Ec, symObjAddr: 0x9778, symBinAddr: 0x10000D8D8, symSize: 0x38 }
  - { offsetInCU: 0x22DA4, offset: 0x22DA4, size: 0x8, addend: 0x0, symName: __ZNSt3__18ios_base8setstateB7v160006Ej, symObjAddr: 0x97B0, symBinAddr: 0x10000D910, symSize: 0x34 }
  - { offsetInCU: 0x22DDB, offset: 0x22DDB, size: 0x8, addend: 0x0, symName: __ZNSt3__111char_traitsIcE6lengthEPKc, symObjAddr: 0x97E4, symBinAddr: 0x10000D944, symSize: 0x34 }
  - { offsetInCU: 0x22DFE, offset: 0x22DFE, size: 0x8, addend: 0x0, symName: __ZNSt3__113unordered_mapIiNS_6vectorINS1_I4gridNS_9allocatorIS2_EEEENS3_IS5_EEEENS_4hashIiEENS_8equal_toIiEENS3_INS_4pairIKiS7_EEEEEC2B7v160006Ev, symObjAddr: 0x983C, symBinAddr: 0x10000D99C, symSize: 0x3C }
  - { offsetInCU: 0x22E28, offset: 0x22E28, size: 0x8, addend: 0x0, symName: __ZNSt3__112__hash_tableINS_17__hash_value_typeIiNS_6vectorINS2_I4gridNS_9allocatorIS3_EEEENS4_IS6_EEEEEENS_22__unordered_map_hasherIiS9_NS_4hashIiEENS_8equal_toIiEELb1EEENS_21__unordered_map_equalIiS9_SE_SC_Lb1EEENS4_IS9_EEEC1Ev, symObjAddr: 0x9878, symBinAddr: 0x10000D9D8, symSize: 0x2C }
  - { offsetInCU: 0x22E54, offset: 0x22E54, size: 0x8, addend: 0x0, symName: __ZNSt3__112__hash_tableINS_17__hash_value_typeIiNS_6vectorINS2_I4gridNS_9allocatorIS3_EEEENS4_IS6_EEEEEENS_22__unordered_map_hasherIiS9_NS_4hashIiEENS_8equal_toIiEELb1EEENS_21__unordered_map_equalIiS9_SE_SC_Lb1EEENS4_IS9_EEEC2Ev, symObjAddr: 0x98B4, symBinAddr: 0x10000DA14, symSize: 0x7C }
  - { offsetInCU: 0x22E80, offset: 0x22E80, size: 0x8, addend: 0x0, symName: __ZNSt3__110unique_ptrIA_PNS_16__hash_node_baseIPNS_11__hash_nodeINS_17__hash_value_typeIiNS_6vectorINS4_I4gridNS_9allocatorIS5_EEEENS6_IS8_EEEEEEPvEEEENS_25__bucket_list_deallocatorINS6_ISG_EEEEEC1B7v160006ILb1EvEEv, symObjAddr: 0x9930, symBinAddr: 0x10000DA90, symSize: 0x2C }
  - { offsetInCU: 0x22EB5, offset: 0x22EB5, size: 0x8, addend: 0x0, symName: __ZNSt3__117__compressed_pairINS_16__hash_node_baseIPNS_11__hash_nodeINS_17__hash_value_typeIiNS_6vectorINS4_I4gridNS_9allocatorIS5_EEEENS6_IS8_EEEEEEPvEEEENS6_ISD_EEEC1B7v160006ILb1EvEEv, symObjAddr: 0x995C, symBinAddr: 0x10000DABC, symSize: 0x2C }
  - { offsetInCU: 0x22EEA, offset: 0x22EEA, size: 0x8, addend: 0x0, symName: __ZNSt3__117__compressed_pairImNS_22__unordered_map_hasherIiNS_17__hash_value_typeIiNS_6vectorINS3_I4gridNS_9allocatorIS4_EEEENS5_IS7_EEEEEENS_4hashIiEENS_8equal_toIiEELb1EEEEC1B7v160006IiNS_18__default_init_tagEEEOT_OT0_, symObjAddr: 0x9988, symBinAddr: 0x10000DAE8, symSize: 0x3C }
  - { offsetInCU: 0x22F47, offset: 0x22F47, size: 0x8, addend: 0x0, symName: __ZNSt3__117__compressed_pairIfNS_21__unordered_map_equalIiNS_17__hash_value_typeIiNS_6vectorINS3_I4gridNS_9allocatorIS4_EEEENS5_IS7_EEEEEENS_8equal_toIiEENS_4hashIiEELb1EEEEC1B7v160006IfNS_18__default_init_tagEEEOT_OT0_, symObjAddr: 0x99C4, symBinAddr: 0x10000DB24, symSize: 0x3C }
  - { offsetInCU: 0x22F9F, offset: 0x22F9F, size: 0x8, addend: 0x0, symName: __ZNSt3__110unique_ptrIA_PNS_16__hash_node_baseIPNS_11__hash_nodeINS_17__hash_value_typeIiNS_6vectorINS4_I4gridNS_9allocatorIS5_EEEENS6_IS8_EEEEEEPvEEEENS_25__bucket_list_deallocatorINS6_ISG_EEEEEC2B7v160006ILb1EvEEv, symObjAddr: 0x9A00, symBinAddr: 0x10000DB60, symSize: 0x3C }
  - { offsetInCU: 0x22FD9, offset: 0x22FD9, size: 0x8, addend: 0x0, symName: __ZNSt3__117__compressed_pairIPPNS_16__hash_node_baseIPNS_11__hash_nodeINS_17__hash_value_typeIiNS_6vectorINS4_I4gridNS_9allocatorIS5_EEEENS6_IS8_EEEEEEPvEEEENS_25__bucket_list_deallocatorINS6_ISG_EEEEEC1B7v160006INS_16__value_init_tagESN_EEOT_OT0_, symObjAddr: 0x9A3C, symBinAddr: 0x10000DB9C, symSize: 0x3C }
  - { offsetInCU: 0x23031, offset: 0x23031, size: 0x8, addend: 0x0, symName: __ZNSt3__117__compressed_pairIPPNS_16__hash_node_baseIPNS_11__hash_nodeINS_17__hash_value_typeIiNS_6vectorINS4_I4gridNS_9allocatorIS5_EEEENS6_IS8_EEEEEEPvEEEENS_25__bucket_list_deallocatorINS6_ISG_EEEEEC2B7v160006INS_16__value_init_tagESN_EEOT_OT0_, symObjAddr: 0x9A78, symBinAddr: 0x10000DBD8, symSize: 0x40 }
  - { offsetInCU: 0x23089, offset: 0x23089, size: 0x8, addend: 0x0, symName: __ZNSt3__122__compressed_pair_elemIPPNS_16__hash_node_baseIPNS_11__hash_nodeINS_17__hash_value_typeIiNS_6vectorINS4_I4gridNS_9allocatorIS5_EEEENS6_IS8_EEEEEEPvEEEELi0ELb0EEC2B7v160006ENS_16__value_init_tagE, symObjAddr: 0x9AB8, symBinAddr: 0x10000DC18, symSize: 0x18 }
  - { offsetInCU: 0x230BD, offset: 0x230BD, size: 0x8, addend: 0x0, symName: __ZNSt3__122__compressed_pair_elemINS_25__bucket_list_deallocatorINS_9allocatorIPNS_16__hash_node_baseIPNS_11__hash_nodeINS_17__hash_value_typeIiNS_6vectorINS6_I4gridNS2_IS7_EEEENS2_IS9_EEEEEEPvEEEEEEEELi1ELb0EEC2B7v160006ENS_16__value_init_tagE, symObjAddr: 0x9AD0, symBinAddr: 0x10000DC30, symSize: 0x2C }
  - { offsetInCU: 0x230F1, offset: 0x230F1, size: 0x8, addend: 0x0, symName: __ZNSt3__125__bucket_list_deallocatorINS_9allocatorIPNS_16__hash_node_baseIPNS_11__hash_nodeINS_17__hash_value_typeIiNS_6vectorINS5_I4gridNS1_IS6_EEEENS1_IS8_EEEEEEPvEEEEEEEC1B7v160006Ev, symObjAddr: 0x9AFC, symBinAddr: 0x10000DC5C, symSize: 0x2C }
  - { offsetInCU: 0x2311B, offset: 0x2311B, size: 0x8, addend: 0x0, symName: __ZNSt3__125__bucket_list_deallocatorINS_9allocatorIPNS_16__hash_node_baseIPNS_11__hash_nodeINS_17__hash_value_typeIiNS_6vectorINS5_I4gridNS1_IS6_EEEENS1_IS8_EEEEEEPvEEEEEEEC2B7v160006Ev, symObjAddr: 0x9B28, symBinAddr: 0x10000DC88, symSize: 0x40 }
  - { offsetInCU: 0x23145, offset: 0x23145, size: 0x8, addend: 0x0, symName: __ZNSt3__117__compressed_pairImNS_9allocatorIPNS_16__hash_node_baseIPNS_11__hash_nodeINS_17__hash_value_typeIiNS_6vectorINS5_I4gridNS1_IS6_EEEENS1_IS8_EEEEEEPvEEEEEEEC1B7v160006IiNS_18__default_init_tagEEEOT_OT0_, symObjAddr: 0x9B68, symBinAddr: 0x10000DCC8, symSize: 0x3C }
  - { offsetInCU: 0x2319D, offset: 0x2319D, size: 0x8, addend: 0x0, symName: __ZNSt3__117__compressed_pairImNS_9allocatorIPNS_16__hash_node_baseIPNS_11__hash_nodeINS_17__hash_value_typeIiNS_6vectorINS5_I4gridNS1_IS6_EEEENS1_IS8_EEEEEEPvEEEEEEEC2B7v160006IiNS_18__default_init_tagEEEOT_OT0_, symObjAddr: 0x9BA4, symBinAddr: 0x10000DD04, symSize: 0x40 }
  - { offsetInCU: 0x231F5, offset: 0x231F5, size: 0x8, addend: 0x0, symName: __ZNSt3__122__compressed_pair_elemImLi0ELb0EEC2B7v160006IivEEOT_, symObjAddr: 0x9BE4, symBinAddr: 0x10000DD44, symSize: 0x24 }
  - { offsetInCU: 0x23237, offset: 0x23237, size: 0x8, addend: 0x0, symName: __ZNSt3__122__compressed_pair_elemINS_9allocatorIPNS_16__hash_node_baseIPNS_11__hash_nodeINS_17__hash_value_typeIiNS_6vectorINS5_I4gridNS1_IS6_EEEENS1_IS8_EEEEEEPvEEEEEELi1ELb1EEC2B7v160006ENS_18__default_init_tagE, symObjAddr: 0x9C08, symBinAddr: 0x10000DD68, symSize: 0x2C }
  - { offsetInCU: 0x2326B, offset: 0x2326B, size: 0x8, addend: 0x0, symName: __ZNSt3__19allocatorIPNS_16__hash_node_baseIPNS_11__hash_nodeINS_17__hash_value_typeIiNS_6vectorINS4_I4gridNS0_IS5_EEEENS0_IS7_EEEEEEPvEEEEEC2B7v160006Ev, symObjAddr: 0x9C34, symBinAddr: 0x10000DD94, symSize: 0x2C }
  - { offsetInCU: 0x23295, offset: 0x23295, size: 0x8, addend: 0x0, symName: __ZNSt3__116__non_trivial_ifILb1ENS_9allocatorIPNS_16__hash_node_baseIPNS_11__hash_nodeINS_17__hash_value_typeIiNS_6vectorINS5_I4gridNS1_IS6_EEEENS1_IS8_EEEEEEPvEEEEEEEC2B7v160006Ev, symObjAddr: 0x9C60, symBinAddr: 0x10000DDC0, symSize: 0x14 }
  - { offsetInCU: 0x232BF, offset: 0x232BF, size: 0x8, addend: 0x0, symName: __ZNSt3__117__compressed_pairINS_16__hash_node_baseIPNS_11__hash_nodeINS_17__hash_value_typeIiNS_6vectorINS4_I4gridNS_9allocatorIS5_EEEENS6_IS8_EEEEEEPvEEEENS6_ISD_EEEC2B7v160006ILb1EvEEv, symObjAddr: 0x9C74, symBinAddr: 0x10000DDD4, symSize: 0x34 }
  - { offsetInCU: 0x232F4, offset: 0x232F4, size: 0x8, addend: 0x0, symName: __ZNSt3__122__compressed_pair_elemINS_16__hash_node_baseIPNS_11__hash_nodeINS_17__hash_value_typeIiNS_6vectorINS4_I4gridNS_9allocatorIS5_EEEENS6_IS8_EEEEEEPvEEEELi0ELb0EEC2B7v160006ENS_16__value_init_tagE, symObjAddr: 0x9CA8, symBinAddr: 0x10000DE08, symSize: 0x2C }
  - { offsetInCU: 0x23328, offset: 0x23328, size: 0x8, addend: 0x0, symName: __ZNSt3__122__compressed_pair_elemINS_9allocatorINS_11__hash_nodeINS_17__hash_value_typeIiNS_6vectorINS4_I4gridNS1_IS5_EEEENS1_IS7_EEEEEEPvEEEELi1ELb1EEC2B7v160006ENS_16__value_init_tagE, symObjAddr: 0x9CD4, symBinAddr: 0x10000DE34, symSize: 0x2C }
  - { offsetInCU: 0x2335C, offset: 0x2335C, size: 0x8, addend: 0x0, symName: __ZNSt3__116__hash_node_baseIPNS_11__hash_nodeINS_17__hash_value_typeIiNS_6vectorINS3_I4gridNS_9allocatorIS4_EEEENS5_IS7_EEEEEEPvEEEC1B7v160006Ev, symObjAddr: 0x9D00, symBinAddr: 0x10000DE60, symSize: 0x2C }
  - { offsetInCU: 0x23386, offset: 0x23386, size: 0x8, addend: 0x0, symName: __ZNSt3__116__hash_node_baseIPNS_11__hash_nodeINS_17__hash_value_typeIiNS_6vectorINS3_I4gridNS_9allocatorIS4_EEEENS5_IS7_EEEEEEPvEEEC2B7v160006Ev, symObjAddr: 0x9D2C, symBinAddr: 0x10000DE8C, symSize: 0x18 }
  - { offsetInCU: 0x233B0, offset: 0x233B0, size: 0x8, addend: 0x0, symName: __ZNSt3__19allocatorINS_11__hash_nodeINS_17__hash_value_typeIiNS_6vectorINS3_I4gridNS0_IS4_EEEENS0_IS6_EEEEEEPvEEEC2B7v160006Ev, symObjAddr: 0x9D44, symBinAddr: 0x10000DEA4, symSize: 0x2C }
  - { offsetInCU: 0x233DA, offset: 0x233DA, size: 0x8, addend: 0x0, symName: __ZNSt3__116__non_trivial_ifILb1ENS_9allocatorINS_11__hash_nodeINS_17__hash_value_typeIiNS_6vectorINS4_I4gridNS1_IS5_EEEENS1_IS7_EEEEEEPvEEEEEC2B7v160006Ev, symObjAddr: 0x9D70, symBinAddr: 0x10000DED0, symSize: 0x14 }
  - { offsetInCU: 0x23404, offset: 0x23404, size: 0x8, addend: 0x0, symName: __ZNSt3__117__compressed_pairImNS_22__unordered_map_hasherIiNS_17__hash_value_typeIiNS_6vectorINS3_I4gridNS_9allocatorIS4_EEEENS5_IS7_EEEEEENS_4hashIiEENS_8equal_toIiEELb1EEEEC2B7v160006IiNS_18__default_init_tagEEEOT_OT0_, symObjAddr: 0x9D84, symBinAddr: 0x10000DEE4, symSize: 0x40 }
  - { offsetInCU: 0x2345C, offset: 0x2345C, size: 0x8, addend: 0x0, symName: __ZNSt3__122__compressed_pair_elemINS_22__unordered_map_hasherIiNS_17__hash_value_typeIiNS_6vectorINS3_I4gridNS_9allocatorIS4_EEEENS5_IS7_EEEEEENS_4hashIiEENS_8equal_toIiEELb1EEELi1ELb1EEC2B7v160006ENS_18__default_init_tagE, symObjAddr: 0x9DC4, symBinAddr: 0x10000DF24, symSize: 0x2C }
  - { offsetInCU: 0x23490, offset: 0x23490, size: 0x8, addend: 0x0, symName: __ZNSt3__122__unordered_map_hasherIiNS_17__hash_value_typeIiNS_6vectorINS2_I4gridNS_9allocatorIS3_EEEENS4_IS6_EEEEEENS_4hashIiEENS_8equal_toIiEELb1EEC2B7v160006Ev, symObjAddr: 0x9DF0, symBinAddr: 0x10000DF50, symSize: 0x14 }
  - { offsetInCU: 0x234BA, offset: 0x234BA, size: 0x8, addend: 0x0, symName: __ZNSt3__117__compressed_pairIfNS_21__unordered_map_equalIiNS_17__hash_value_typeIiNS_6vectorINS3_I4gridNS_9allocatorIS4_EEEENS5_IS7_EEEEEENS_8equal_toIiEENS_4hashIiEELb1EEEEC2B7v160006IfNS_18__default_init_tagEEEOT_OT0_, symObjAddr: 0x9E04, symBinAddr: 0x10000DF64, symSize: 0x40 }
  - { offsetInCU: 0x23512, offset: 0x23512, size: 0x8, addend: 0x0, symName: __ZNSt3__122__compressed_pair_elemIfLi0ELb0EEC2B7v160006IfvEEOT_, symObjAddr: 0x9E44, symBinAddr: 0x10000DFA4, symSize: 0x24 }
  - { offsetInCU: 0x23554, offset: 0x23554, size: 0x8, addend: 0x0, symName: __ZNSt3__122__compressed_pair_elemINS_21__unordered_map_equalIiNS_17__hash_value_typeIiNS_6vectorINS3_I4gridNS_9allocatorIS4_EEEENS5_IS7_EEEEEENS_8equal_toIiEENS_4hashIiEELb1EEELi1ELb1EEC2B7v160006ENS_18__default_init_tagE, symObjAddr: 0x9E68, symBinAddr: 0x10000DFC8, symSize: 0x2C }
  - { offsetInCU: 0x23588, offset: 0x23588, size: 0x8, addend: 0x0, symName: __ZNSt3__121__unordered_map_equalIiNS_17__hash_value_typeIiNS_6vectorINS2_I4gridNS_9allocatorIS3_EEEENS4_IS6_EEEEEENS_8equal_toIiEENS_4hashIiEELb1EEC2B7v160006Ev, symObjAddr: 0x9E94, symBinAddr: 0x10000DFF4, symSize: 0x14 }
  - { offsetInCU: 0x235B2, offset: 0x235B2, size: 0x8, addend: 0x0, symName: __ZNSt3__113unordered_mapIiNS_6vectorINS1_I4gridNS_9allocatorIS2_EEEENS3_IS5_EEEENS_4hashIiEENS_8equal_toIiEENS3_INS_4pairIKiS7_EEEEED2B7v160006Ev, symObjAddr: 0x9EA8, symBinAddr: 0x10000E008, symSize: 0x2C }
  - { offsetInCU: 0x235DC, offset: 0x235DC, size: 0x8, addend: 0x0, symName: __ZNSt3__112__hash_tableINS_17__hash_value_typeIiNS_6vectorINS2_I4gridNS_9allocatorIS3_EEEENS4_IS6_EEEEEENS_22__unordered_map_hasherIiS9_NS_4hashIiEENS_8equal_toIiEELb1EEENS_21__unordered_map_equalIiS9_SE_SC_Lb1EEENS4_IS9_EEED1Ev, symObjAddr: 0x9ED4, symBinAddr: 0x10000E034, symSize: 0x2C }
  - { offsetInCU: 0x23608, offset: 0x23608, size: 0x8, addend: 0x0, symName: __ZNSt3__112__hash_tableINS_17__hash_value_typeIiNS_6vectorINS2_I4gridNS_9allocatorIS3_EEEENS4_IS6_EEEEEENS_22__unordered_map_hasherIiS9_NS_4hashIiEENS_8equal_toIiEELb1EEENS_21__unordered_map_equalIiS9_SE_SC_Lb1EEENS4_IS9_EEED2Ev, symObjAddr: 0x9F00, symBinAddr: 0x10000E060, symSize: 0x58 }
  - { offsetInCU: 0x23634, offset: 0x23634, size: 0x8, addend: 0x0, symName: __ZNSt3__112__hash_tableINS_17__hash_value_typeIiNS_6vectorINS2_I4gridNS_9allocatorIS3_EEEENS4_IS6_EEEEEENS_22__unordered_map_hasherIiS9_NS_4hashIiEENS_8equal_toIiEELb1EEENS_21__unordered_map_equalIiS9_SE_SC_Lb1EEENS4_IS9_EEE17__deallocate_nodeEPNS_16__hash_node_baseIPNS_11__hash_nodeIS9_PvEEEE, symObjAddr: 0x9F58, symBinAddr: 0x10000E0B8, symSize: 0xA8 }
  - { offsetInCU: 0x2369E, offset: 0x2369E, size: 0x8, addend: 0x0, symName: __ZNSt3__117__compressed_pairINS_16__hash_node_baseIPNS_11__hash_nodeINS_17__hash_value_typeIiNS_6vectorINS4_I4gridNS_9allocatorIS5_EEEENS6_IS8_EEEEEEPvEEEENS6_ISD_EEE5firstB7v160006Ev, symObjAddr: 0xA000, symBinAddr: 0x10000E160, symSize: 0x24 }
  - { offsetInCU: 0x236C4, offset: 0x236C4, size: 0x8, addend: 0x0, symName: __ZNSt3__110unique_ptrIA_PNS_16__hash_node_baseIPNS_11__hash_nodeINS_17__hash_value_typeIiNS_6vectorINS4_I4gridNS_9allocatorIS5_EEEENS6_IS8_EEEEEEPvEEEENS_25__bucket_list_deallocatorINS6_ISG_EEEEED1B7v160006Ev, symObjAddr: 0xA034, symBinAddr: 0x10000E194, symSize: 0x2C }
  - { offsetInCU: 0x236EE, offset: 0x236EE, size: 0x8, addend: 0x0, symName: __ZNSt3__112__hash_tableINS_17__hash_value_typeIiNS_6vectorINS2_I4gridNS_9allocatorIS3_EEEENS4_IS6_EEEEEENS_22__unordered_map_hasherIiS9_NS_4hashIiEENS_8equal_toIiEELb1EEENS_21__unordered_map_equalIiS9_SE_SC_Lb1EEENS4_IS9_EEE12__node_allocB7v160006Ev, symObjAddr: 0xA060, symBinAddr: 0x10000E1C0, symSize: 0x28 }
  - { offsetInCU: 0x23714, offset: 0x23714, size: 0x8, addend: 0x0, symName: __ZNSt3__116__hash_node_baseIPNS_11__hash_nodeINS_17__hash_value_typeIiNS_6vectorINS3_I4gridNS_9allocatorIS4_EEEENS5_IS7_EEEEEEPvEEE8__upcastB7v160006Ev, symObjAddr: 0xA088, symBinAddr: 0x10000E1E8, symSize: 0x24 }
  - { offsetInCU: 0x2373F, offset: 0x2373F, size: 0x8, addend: 0x0, symName: __ZNSt3__116allocator_traitsINS_9allocatorINS_11__hash_nodeINS_17__hash_value_typeIiNS_6vectorINS4_I4gridNS1_IS5_EEEENS1_IS7_EEEEEEPvEEEEE7destroyB7v160006INS_4pairIKiS9_EEvvEEvRSD_PT_, symObjAddr: 0xA0AC, symBinAddr: 0x10000E20C, symSize: 0x28 }
  - { offsetInCU: 0x23779, offset: 0x23779, size: 0x8, addend: 0x0, symName: __ZNSt3__122__hash_key_value_typesINS_17__hash_value_typeIiNS_6vectorINS2_I4gridNS_9allocatorIS3_EEEENS4_IS6_EEEEEEE9__get_ptrB7v160006ERS9_, symObjAddr: 0xA0D4, symBinAddr: 0x10000E234, symSize: 0x24 }
  - { offsetInCU: 0x2379C, offset: 0x2379C, size: 0x8, addend: 0x0, symName: __ZNSt3__116allocator_traitsINS_9allocatorINS_11__hash_nodeINS_17__hash_value_typeIiNS_6vectorINS4_I4gridNS1_IS5_EEEENS1_IS7_EEEEEEPvEEEEE10deallocateB7v160006ERSD_PSC_m, symObjAddr: 0xA0F8, symBinAddr: 0x10000E258, symSize: 0x34 }
  - { offsetInCU: 0x237DE, offset: 0x237DE, size: 0x8, addend: 0x0, symName: __ZNSt3__117__compressed_pairINS_16__hash_node_baseIPNS_11__hash_nodeINS_17__hash_value_typeIiNS_6vectorINS4_I4gridNS_9allocatorIS5_EEEENS6_IS8_EEEEEEPvEEEENS6_ISD_EEE6secondB7v160006Ev, symObjAddr: 0xA12C, symBinAddr: 0x10000E28C, symSize: 0x24 }
  - { offsetInCU: 0x23804, offset: 0x23804, size: 0x8, addend: 0x0, symName: __ZNSt3__122__compressed_pair_elemINS_9allocatorINS_11__hash_nodeINS_17__hash_value_typeIiNS_6vectorINS4_I4gridNS1_IS5_EEEENS1_IS7_EEEEEEPvEEEELi1ELb1EE5__getB7v160006Ev, symObjAddr: 0xA150, symBinAddr: 0x10000E2B0, symSize: 0x14 }
  - { offsetInCU: 0x2382A, offset: 0x2382A, size: 0x8, addend: 0x0, symName: __ZNSt3__114pointer_traitsIPNS_16__hash_node_baseIPNS_11__hash_nodeINS_17__hash_value_typeIiNS_6vectorINS4_I4gridNS_9allocatorIS5_EEEENS6_IS8_EEEEEEPvEEEEE10pointer_toB7v160006ERSF_, symObjAddr: 0xA164, symBinAddr: 0x10000E2C4, symSize: 0x14 }
  - { offsetInCU: 0x2384D, offset: 0x2384D, size: 0x8, addend: 0x0, symName: __ZNSt3__14pairIKiNS_6vectorINS2_I4gridNS_9allocatorIS3_EEEENS4_IS6_EEEEED1Ev, symObjAddr: 0xA1C0, symBinAddr: 0x10000E320, symSize: 0x2C }
  - { offsetInCU: 0x23879, offset: 0x23879, size: 0x8, addend: 0x0, symName: __ZNSt3__14pairIKiNS_6vectorINS2_I4gridNS_9allocatorIS3_EEEENS4_IS6_EEEEED2Ev, symObjAddr: 0xA1EC, symBinAddr: 0x10000E34C, symSize: 0x30 }
  - { offsetInCU: 0x238A5, offset: 0x238A5, size: 0x8, addend: 0x0, symName: __ZNSt3__117__hash_value_typeIiNS_6vectorINS1_I4gridNS_9allocatorIS2_EEEENS3_IS5_EEEEE11__get_valueB7v160006Ev, symObjAddr: 0xA21C, symBinAddr: 0x10000E37C, symSize: 0x24 }
  - { offsetInCU: 0x238CB, offset: 0x238CB, size: 0x8, addend: 0x0, symName: __ZNSt3__19allocatorINS_11__hash_nodeINS_17__hash_value_typeIiNS_6vectorINS3_I4gridNS0_IS4_EEEENS0_IS6_EEEEEEPvEEE10deallocateB7v160006EPSB_m, symObjAddr: 0xA278, symBinAddr: 0x10000E3D8, symSize: 0x44 }
  - { offsetInCU: 0x2390D, offset: 0x2390D, size: 0x8, addend: 0x0, symName: __ZNSt3__122__compressed_pair_elemINS_16__hash_node_baseIPNS_11__hash_nodeINS_17__hash_value_typeIiNS_6vectorINS4_I4gridNS_9allocatorIS5_EEEENS6_IS8_EEEEEEPvEEEELi0ELb0EE5__getB7v160006Ev, symObjAddr: 0xA2BC, symBinAddr: 0x10000E41C, symSize: 0x14 }
  - { offsetInCU: 0x23933, offset: 0x23933, size: 0x8, addend: 0x0, symName: __ZNSt3__110unique_ptrIA_PNS_16__hash_node_baseIPNS_11__hash_nodeINS_17__hash_value_typeIiNS_6vectorINS4_I4gridNS_9allocatorIS5_EEEENS6_IS8_EEEEEEPvEEEENS_25__bucket_list_deallocatorINS6_ISG_EEEEED2B7v160006Ev, symObjAddr: 0xA2D0, symBinAddr: 0x10000E430, symSize: 0x30 }
  - { offsetInCU: 0x2395D, offset: 0x2395D, size: 0x8, addend: 0x0, symName: __ZNSt3__110unique_ptrIA_PNS_16__hash_node_baseIPNS_11__hash_nodeINS_17__hash_value_typeIiNS_6vectorINS4_I4gridNS_9allocatorIS5_EEEENS6_IS8_EEEEEEPvEEEENS_25__bucket_list_deallocatorINS6_ISG_EEEEE5resetB7v160006EDn, symObjAddr: 0xA300, symBinAddr: 0x10000E460, symSize: 0x6C }
  - { offsetInCU: 0x2399D, offset: 0x2399D, size: 0x8, addend: 0x0, symName: __ZNSt3__117__compressed_pairIPPNS_16__hash_node_baseIPNS_11__hash_nodeINS_17__hash_value_typeIiNS_6vectorINS4_I4gridNS_9allocatorIS5_EEEENS6_IS8_EEEEEEPvEEEENS_25__bucket_list_deallocatorINS6_ISG_EEEEE5firstB7v160006Ev, symObjAddr: 0xA36C, symBinAddr: 0x10000E4CC, symSize: 0x24 }
  - { offsetInCU: 0x239C3, offset: 0x239C3, size: 0x8, addend: 0x0, symName: __ZNSt3__117__compressed_pairIPPNS_16__hash_node_baseIPNS_11__hash_nodeINS_17__hash_value_typeIiNS_6vectorINS4_I4gridNS_9allocatorIS5_EEEENS6_IS8_EEEEEEPvEEEENS_25__bucket_list_deallocatorINS6_ISG_EEEEE6secondB7v160006Ev, symObjAddr: 0xA390, symBinAddr: 0x10000E4F0, symSize: 0x28 }
  - { offsetInCU: 0x239E9, offset: 0x239E9, size: 0x8, addend: 0x0, symName: __ZNSt3__125__bucket_list_deallocatorINS_9allocatorIPNS_16__hash_node_baseIPNS_11__hash_nodeINS_17__hash_value_typeIiNS_6vectorINS5_I4gridNS1_IS6_EEEENS1_IS8_EEEEEEPvEEEEEEEclB7v160006EPSG_, symObjAddr: 0xA3B8, symBinAddr: 0x10000E518, symSize: 0x58 }
  - { offsetInCU: 0x23A1E, offset: 0x23A1E, size: 0x8, addend: 0x0, symName: __ZNSt3__122__compressed_pair_elemIPPNS_16__hash_node_baseIPNS_11__hash_nodeINS_17__hash_value_typeIiNS_6vectorINS4_I4gridNS_9allocatorIS5_EEEENS6_IS8_EEEEEEPvEEEELi0ELb0EE5__getB7v160006Ev, symObjAddr: 0xA410, symBinAddr: 0x10000E570, symSize: 0x14 }
  - { offsetInCU: 0x23A44, offset: 0x23A44, size: 0x8, addend: 0x0, symName: __ZNSt3__122__compressed_pair_elemINS_25__bucket_list_deallocatorINS_9allocatorIPNS_16__hash_node_baseIPNS_11__hash_nodeINS_17__hash_value_typeIiNS_6vectorINS6_I4gridNS2_IS7_EEEENS2_IS9_EEEEEEPvEEEEEEEELi1ELb0EE5__getB7v160006Ev, symObjAddr: 0xA424, symBinAddr: 0x10000E584, symSize: 0x14 }
  - { offsetInCU: 0x23A6A, offset: 0x23A6A, size: 0x8, addend: 0x0, symName: __ZNSt3__116allocator_traitsINS_9allocatorIPNS_16__hash_node_baseIPNS_11__hash_nodeINS_17__hash_value_typeIiNS_6vectorINS5_I4gridNS1_IS6_EEEENS1_IS8_EEEEEEPvEEEEEEE10deallocateB7v160006ERSH_PSG_m, symObjAddr: 0xA438, symBinAddr: 0x10000E598, symSize: 0x34 }
  - { offsetInCU: 0x23AAC, offset: 0x23AAC, size: 0x8, addend: 0x0, symName: __ZNSt3__125__bucket_list_deallocatorINS_9allocatorIPNS_16__hash_node_baseIPNS_11__hash_nodeINS_17__hash_value_typeIiNS_6vectorINS5_I4gridNS1_IS6_EEEENS1_IS8_EEEEEEPvEEEEEEE7__allocB7v160006Ev, symObjAddr: 0xA46C, symBinAddr: 0x10000E5CC, symSize: 0x24 }
  - { offsetInCU: 0x23AD2, offset: 0x23AD2, size: 0x8, addend: 0x0, symName: __ZNSt3__125__bucket_list_deallocatorINS_9allocatorIPNS_16__hash_node_baseIPNS_11__hash_nodeINS_17__hash_value_typeIiNS_6vectorINS5_I4gridNS1_IS6_EEEENS1_IS8_EEEEEEPvEEEEEEE4sizeB7v160006Ev, symObjAddr: 0xA490, symBinAddr: 0x10000E5F0, symSize: 0x24 }
  - { offsetInCU: 0x23AF8, offset: 0x23AF8, size: 0x8, addend: 0x0, symName: __ZNSt3__19allocatorIPNS_16__hash_node_baseIPNS_11__hash_nodeINS_17__hash_value_typeIiNS_6vectorINS4_I4gridNS0_IS5_EEEENS0_IS7_EEEEEEPvEEEEE10deallocateB7v160006EPSF_m, symObjAddr: 0xA4B4, symBinAddr: 0x10000E614, symSize: 0x40 }
  - { offsetInCU: 0x23B3A, offset: 0x23B3A, size: 0x8, addend: 0x0, symName: __ZNSt3__117__compressed_pairImNS_9allocatorIPNS_16__hash_node_baseIPNS_11__hash_nodeINS_17__hash_value_typeIiNS_6vectorINS5_I4gridNS1_IS6_EEEENS1_IS8_EEEEEEPvEEEEEEE6secondB7v160006Ev, symObjAddr: 0xA4F4, symBinAddr: 0x10000E654, symSize: 0x24 }
  - { offsetInCU: 0x23B60, offset: 0x23B60, size: 0x8, addend: 0x0, symName: __ZNSt3__122__compressed_pair_elemINS_9allocatorIPNS_16__hash_node_baseIPNS_11__hash_nodeINS_17__hash_value_typeIiNS_6vectorINS5_I4gridNS1_IS6_EEEENS1_IS8_EEEEEEPvEEEEEELi1ELb1EE5__getB7v160006Ev, symObjAddr: 0xA518, symBinAddr: 0x10000E678, symSize: 0x14 }
  - { offsetInCU: 0x23B86, offset: 0x23B86, size: 0x8, addend: 0x0, symName: __ZNSt3__117__compressed_pairImNS_9allocatorIPNS_16__hash_node_baseIPNS_11__hash_nodeINS_17__hash_value_typeIiNS_6vectorINS5_I4gridNS1_IS6_EEEENS1_IS8_EEEEEEPvEEEEEEE5firstB7v160006Ev, symObjAddr: 0xA52C, symBinAddr: 0x10000E68C, symSize: 0x24 }
  - { offsetInCU: 0x23BAC, offset: 0x23BAC, size: 0x8, addend: 0x0, symName: __ZNSt3__122__compressed_pair_elemImLi0ELb0EE5__getB7v160006Ev, symObjAddr: 0xA550, symBinAddr: 0x10000E6B0, symSize: 0x14 }
  - { offsetInCU: 0x23BD2, offset: 0x23BD2, size: 0x8, addend: 0x0, symName: __ZNSt3__19basic_iosIcNS_11char_traitsIcEEEC2B7v160006Ev, symObjAddr: 0xA564, symBinAddr: 0x10000E6C4, symSize: 0x44 }
  - { offsetInCU: 0x23BFC, offset: 0x23BFC, size: 0x8, addend: 0x0, symName: __ZNSt3__113basic_istreamIcNS_11char_traitsIcEEEC2B7v160006EPNS_15basic_streambufIcS2_EE, symObjAddr: 0xA5A8, symBinAddr: 0x10000E708, symSize: 0x64 }
  - { offsetInCU: 0x23C41, offset: 0x23C41, size: 0x8, addend: 0x0, symName: __ZNSt3__18ios_baseC2B7v160006Ev, symObjAddr: 0xA60C, symBinAddr: 0x10000E76C, symSize: 0x24 }
  - { offsetInCU: 0x23C6B, offset: 0x23C6B, size: 0x8, addend: 0x0, symName: __ZNSt3__19basic_iosIcNS_11char_traitsIcEEE4initB7v160006EPNS_15basic_streambufIcS2_EE, symObjAddr: 0xA630, symBinAddr: 0x10000E790, symSize: 0x44 }
  - { offsetInCU: 0x23CA2, offset: 0x23CA2, size: 0x8, addend: 0x0, symName: __ZNKSt3__113basic_filebufIcNS_11char_traitsIcEEE7is_openEv, symObjAddr: 0xA674, symBinAddr: 0x10000E7D4, symSize: 0x24 }
  - { offsetInCU: 0x23CE8, offset: 0x23CE8, size: 0x8, addend: 0x0, symName: __ZNKSt3__113basic_istreamIcNS_11char_traitsIcEEE6sentrycvbB7v160006Ev, symObjAddr: 0xA8D0, symBinAddr: 0x10000EA30, symSize: 0x1C }
  - { offsetInCU: 0x23D0E, offset: 0x23D0E, size: 0x8, addend: 0x0, symName: __ZNSt3__112basic_stringIcNS_11char_traitsIcEENS_9allocatorIcEEE5clearB7v160006Ev, symObjAddr: 0xA8EC, symBinAddr: 0x10000EA4C, symSize: 0x88 }
  - { offsetInCU: 0x23D36, offset: 0x23D36, size: 0x8, addend: 0x0, symName: __ZNSt3__115basic_streambufIcNS_11char_traitsIcEEE6sbumpcB7v160006Ev, symObjAddr: 0xA974, symBinAddr: 0x10000EAD4, symSize: 0x78 }
  - { offsetInCU: 0x23D5C, offset: 0x23D5C, size: 0x8, addend: 0x0, symName: __ZNSt3__111char_traitsIcE12to_char_typeEi, symObjAddr: 0xA9EC, symBinAddr: 0x10000EB4C, symSize: 0x18 }
  - { offsetInCU: 0x23D7F, offset: 0x23D7F, size: 0x8, addend: 0x0, symName: __ZNSt3__111char_traitsIcE2eqEcc, symObjAddr: 0xAA04, symBinAddr: 0x10000EB64, symSize: 0x28 }
  - { offsetInCU: 0x23DB0, offset: 0x23DB0, size: 0x8, addend: 0x0, symName: __ZNKSt3__112basic_stringIcNS_11char_traitsIcEENS_9allocatorIcEEE8max_sizeB7v160006Ev, symObjAddr: 0xAA2C, symBinAddr: 0x10000EB8C, symSize: 0xAC }
  - { offsetInCU: 0x23E02, offset: 0x23E02, size: 0x8, addend: 0x0, symName: __ZNSt3__18ios_base18__setstate_nothrowB7v160006Ej, symObjAddr: 0xAAD8, symBinAddr: 0x10000EC38, symSize: 0x64 }
  - { offsetInCU: 0x23E37, offset: 0x23E37, size: 0x8, addend: 0x0, symName: __ZNKSt3__19basic_iosIcNS_11char_traitsIcEEE10exceptionsB7v160006Ev, symObjAddr: 0xAB3C, symBinAddr: 0x10000EC9C, symSize: 0x24 }
  - { offsetInCU: 0x23E5D, offset: 0x23E5D, size: 0x8, addend: 0x0, symName: __ZNSt3__111char_traitsIcE6assignERcRKc, symObjAddr: 0xAB70, symBinAddr: 0x10000ECD0, symSize: 0x24 }
  - { offsetInCU: 0x23E8E, offset: 0x23E8E, size: 0x8, addend: 0x0, symName: __ZNSt3__112basic_stringIcNS_11char_traitsIcEENS_9allocatorIcEEE15__set_long_sizeB7v160006Em, symObjAddr: 0xAB94, symBinAddr: 0x10000ECF4, symSize: 0x38 }
  - { offsetInCU: 0x23EC3, offset: 0x23EC3, size: 0x8, addend: 0x0, symName: __ZNSt3__112basic_stringIcNS_11char_traitsIcEENS_9allocatorIcEEE16__set_short_sizeB7v160006Em, symObjAddr: 0xABCC, symBinAddr: 0x10000ED2C, symSize: 0x78 }
  - { offsetInCU: 0x23EF8, offset: 0x23EF8, size: 0x8, addend: 0x0, symName: __ZNSt3__111char_traitsIcE11to_int_typeEc, symObjAddr: 0xAC44, symBinAddr: 0x10000EDA4, symSize: 0x14 }
  - { offsetInCU: 0x23F25, offset: 0x23F25, size: 0x8, addend: 0x0, symName: __ZNSt3__116allocator_traitsINS_9allocatorIcEEE8max_sizeB7v160006IS2_vvEEmRKS2_, symObjAddr: 0xAC58, symBinAddr: 0x10000EDB8, symSize: 0x28 }
  - { offsetInCU: 0x23F50, offset: 0x23F50, size: 0x8, addend: 0x0, symName: __ZNKSt3__112basic_stringIcNS_11char_traitsIcEENS_9allocatorIcEEE7__allocB7v160006Ev, symObjAddr: 0xAC80, symBinAddr: 0x10000EDE0, symSize: 0x24 }
  - { offsetInCU: 0x23F76, offset: 0x23F76, size: 0x8, addend: 0x0, symName: __ZNKSt3__117__compressed_pairINS_12basic_stringIcNS_11char_traitsIcEENS_9allocatorIcEEE5__repES5_E6secondB7v160006Ev, symObjAddr: 0xACA4, symBinAddr: 0x10000EE04, symSize: 0x24 }
  - { offsetInCU: 0x23F9C, offset: 0x23F9C, size: 0x8, addend: 0x0, symName: __ZNKSt3__122__compressed_pair_elemINS_9allocatorIcEELi1ELb1EE5__getB7v160006Ev, symObjAddr: 0xACC8, symBinAddr: 0x10000EE28, symSize: 0x14 }
  - { offsetInCU: 0x23FC2, offset: 0x23FC2, size: 0x8, addend: 0x0, symName: __ZNKSt3__18ios_base10exceptionsB7v160006Ev, symObjAddr: 0xACDC, symBinAddr: 0x10000EE3C, symSize: 0x18 }
  - { offsetInCU: 0x23FEA, offset: 0x23FEA, size: 0x8, addend: 0x0, symName: __ZNKSt3__19basic_iosIcNS_11char_traitsIcEEE4failB7v160006Ev, symObjAddr: 0xACF4, symBinAddr: 0x10000EE54, symSize: 0x28 }
  - { offsetInCU: 0x24010, offset: 0x24010, size: 0x8, addend: 0x0, symName: __ZNKSt3__18ios_base4failB7v160006Ev, symObjAddr: 0xAD1C, symBinAddr: 0x10000EE7C, symSize: 0x28 }
...
