---
triple:          'arm64-apple-darwin'
binary-path:     main
relocations:
  - { offsetInCU: 0x3F, offset: 0x3F, size: 0x8, addend: 0x0, symName: _north_bound, symObjAddr: 0x89218, symBinAddr: 0x10000C000, symSize: 0x0 }
  - { offsetInCU: 0x154D0, offset: 0x154D0, size: 0x8, addend: 0x0, symName: __ZNSt3__124__put_character_sequenceB7v160006IcNS_11char_traitsIcEEEERNS_13basic_ostreamIT_T0_EES7_PKS4_m, symObjAddr: 0x3290, symBinAddr: 0x10000749C, symSize: 0x164 }
  - { offsetInCU: 0x165FA, offset: 0x165FA, size: 0x8, addend: 0x0, symName: __ZNSt3__1lsB7v160006INS_11char_traitsIcEEEERNS_13basic_ostreamIcT_EES6_PKc, symObjAddr: 0x1E4, symBinAddr: 0x1000043F0, symSize: 0x34 }
  - { offsetInCU: 0x1768A, offset: 0x1768A, size: 0x8, addend: 0x0, symName: __ZNSt3__17getlineB7v160006IcNS_11char_traitsIcEENS_9allocatorIcEEEERNS_13basic_istreamIT_T0_EES9_RNS_12basic_stringIS6_S7_T1_EES6_, symObjAddr: 0x359C, symBinAddr: 0x1000077A8, symSize: 0x188 }
  - { offsetInCU: 0x17961, offset: 0x17961, size: 0x8, addend: 0x0, symName: __ZNSt3__14endlB7v160006IcNS_11char_traitsIcEEEERNS_13basic_ostreamIT_T0_EES7_, symObjAddr: 0x2608, symBinAddr: 0x100006814, symSize: 0x90 }
  - { offsetInCU: 0x17A6D, offset: 0x17A6D, size: 0x8, addend: 0x0, symName: __ZNSt3__130__uninitialized_allocator_copyB7v160006INS_9allocatorINS_6vectorI4gridNS1_IS3_EEEEEEPS5_S7_S7_EET2_RT_T0_T1_S8_, symObjAddr: 0x2C54, symBinAddr: 0x100006E60, symSize: 0x16C }
  - { offsetInCU: 0x17EFA, offset: 0x17EFA, size: 0x8, addend: 0x0, symName: __ZNSt3__120__throw_length_errorB7v160006EPKc, symObjAddr: 0x2A18, symBinAddr: 0x100006C24, symSize: 0x50 }
  - { offsetInCU: 0x1820D, offset: 0x1820D, size: 0x8, addend: 0x0, symName: __ZNSt3__116__pad_and_outputB7v160006IcNS_11char_traitsIcEEEENS_19ostreambuf_iteratorIT_T0_EES6_PKS4_S8_S8_RNS_8ios_baseES4_, symObjAddr: 0x33F4, symBinAddr: 0x100007600, symSize: 0x194 }
  - { offsetInCU: 0x18F66, offset: 0x18F66, size: 0x8, addend: 0x0, symName: __ZSt28__throw_bad_array_new_lengthB7v160006v, symObjAddr: 0x2A8C, symBinAddr: 0x100006C98, symSize: 0x28 }
  - { offsetInCU: 0x1C809, offset: 0x1C809, size: 0x8, addend: 0x0, symName: __ZNSt3__16vectorIiNS_9allocatorIiEEED1B7v160006Ev, symObjAddr: 0x0, symBinAddr: 0x10000420C, symSize: 0x30 }
  - { offsetInCU: 0x1CC49, offset: 0x1CC49, size: 0x8, addend: 0x0, symName: __Z11debug_printRNSt3__16vectorINS0_I4gridNS_9allocatorIS1_EEEENS2_IS4_EEEE, symObjAddr: 0x30, symBinAddr: 0x10000423C, symSize: 0x1B4 }
  - { offsetInCU: 0x1D209, offset: 0x1D209, size: 0x8, addend: 0x0, symName: __ZNKSt3__16vectorI4gridNS_9allocatorIS1_EEE20__throw_length_errorB7v160006Ev, symObjAddr: 0x2A04, symBinAddr: 0x100006C10, symSize: 0x14 }
  - { offsetInCU: 0x1D233, offset: 0x1D233, size: 0x8, addend: 0x0, symName: __ZNSt3__120__throw_length_errorB7v160006EPKc, symObjAddr: 0x2A18, symBinAddr: 0x100006C24, symSize: 0x50 }
  - { offsetInCU: 0x1D267, offset: 0x1D267, size: 0x8, addend: 0x0, symName: __Z16calculate_weightNSt3__16vectorINS0_I4gridNS_9allocatorIS1_EEEENS2_IS4_EEEE, symObjAddr: 0x218, symBinAddr: 0x100004424, symSize: 0x184 }
  - { offsetInCU: 0x1D295, offset: 0x1D295, size: 0x8, addend: 0x0, symName: __Z16calculate_weightNSt3__16vectorINS0_I4gridNS_9allocatorIS1_EEEENS2_IS4_EEEE, symObjAddr: 0x218, symBinAddr: 0x100004424, symSize: 0x184 }
  - { offsetInCU: 0x1D2AF, offset: 0x1D2AF, size: 0x8, addend: 0x0, symName: __Z16calculate_weightNSt3__16vectorINS0_I4gridNS_9allocatorIS1_EEEENS2_IS4_EEEE, symObjAddr: 0x218, symBinAddr: 0x100004424, symSize: 0x184 }
  - { offsetInCU: 0x1D329, offset: 0x1D329, size: 0x8, addend: 0x0, symName: __Z10roll_northRNSt3__16vectorINS0_I4gridNS_9allocatorIS1_EEEENS2_IS4_EEEE, symObjAddr: 0x39C, symBinAddr: 0x1000045A8, symSize: 0x190 }
  - { offsetInCU: 0x1D7B3, offset: 0x1D7B3, size: 0x8, addend: 0x0, symName: __Z13manually_rollRNSt3__16vectorINS0_I4gridNS_9allocatorIS1_EEEENS2_IS4_EEEE, symObjAddr: 0x52C, symBinAddr: 0x100004738, symSize: 0x111C }
  - { offsetInCU: 0x1F668, offset: 0x1F668, size: 0x8, addend: 0x0, symName: __ZNKSt3__16vectorIiNS_9allocatorIiEEE20__throw_length_errorB7v160006Ev, symObjAddr: 0x2AB4, symBinAddr: 0x100006CC0, symSize: 0x14 }
  - { offsetInCU: 0x1F692, offset: 0x1F692, size: 0x8, addend: 0x0, symName: __ZNSt3__16vectorINS0_I4gridNS_9allocatorIS1_EEEENS2_IS4_EEE21__push_back_slow_pathIS4_EEvOT_, symObjAddr: 0x2AC8, symBinAddr: 0x100006CD4, symSize: 0x178 }
  - { offsetInCU: 0x202B2, offset: 0x202B2, size: 0x8, addend: 0x0, symName: _main, symObjAddr: 0x1648, symBinAddr: 0x100005854, symSize: 0xFC0 }
  - { offsetInCU: 0x23099, offset: 0x23099, size: 0x8, addend: 0x0, symName: __ZNSt3__114basic_ifstreamIcNS_11char_traitsIcEEEC1EPKcj, symObjAddr: 0x2698, symBinAddr: 0x1000068A4, symSize: 0x10C }
  - { offsetInCU: 0x2317C, offset: 0x2317C, size: 0x8, addend: 0x0, symName: __ZNSt3__16vectorINS0_I4gridNS_9allocatorIS1_EEEENS2_IS4_EEE21__push_back_slow_pathIS4_EEvOT_, symObjAddr: 0x2AC8, symBinAddr: 0x100006CD4, symSize: 0x178 }
  - { offsetInCU: 0x2376F, offset: 0x2376F, size: 0x8, addend: 0x0, symName: __ZNKSt3__16vectorINS0_I4gridNS_9allocatorIS1_EEEENS2_IS4_EEE20__throw_length_errorB7v160006Ev, symObjAddr: 0x2C40, symBinAddr: 0x100006E4C, symSize: 0x14 }
  - { offsetInCU: 0x23783, offset: 0x23783, size: 0x8, addend: 0x0, symName: __ZNSt3__16vectorINS0_INS0_I4gridNS_9allocatorIS1_EEEENS2_IS4_EEEENS2_IS6_EEE21__push_back_slow_pathIS6_EEvOT_, symObjAddr: 0x2E2C, symBinAddr: 0x100007038, symSize: 0x1B0 }
  - { offsetInCU: 0x23EF2, offset: 0x23EF2, size: 0x8, addend: 0x0, symName: __ZNSt3__114__split_bufferINS_6vectorINS1_I4gridNS_9allocatorIS2_EEEENS3_IS5_EEEERNS3_IS7_EEED1Ev, symObjAddr: 0x2FDC, symBinAddr: 0x1000071E8, symSize: 0xB0 }
  - { offsetInCU: 0x23F06, offset: 0x23F06, size: 0x8, addend: 0x0, symName: __ZNSt3__16vectorINS0_I4gridNS_9allocatorIS1_EEEENS2_IS4_EEEC1ERKS6_, symObjAddr: 0x27A4, symBinAddr: 0x1000069B0, symSize: 0xD4 }
  - { offsetInCU: 0x24170, offset: 0x24170, size: 0x8, addend: 0x0, symName: __ZNSt3__16vectorINS0_INS0_I4gridNS_9allocatorIS1_EEEENS2_IS4_EEEENS2_IS6_EEE21__push_back_slow_pathIRKS6_EEvOT_, symObjAddr: 0x30A0, symBinAddr: 0x1000072AC, symSize: 0x1F0 }
  - { offsetInCU: 0x2499A, offset: 0x2499A, size: 0x8, addend: 0x0, symName: __ZNSt3__16vectorINS0_I4gridNS_9allocatorIS1_EEEENS2_IS4_EEED1B7v160006Ev, symObjAddr: 0x2878, symBinAddr: 0x100006A84, symSize: 0x74 }
  - { offsetInCU: 0x24C68, offset: 0x24C68, size: 0x8, addend: 0x0, symName: __ZNSt3__16vectorINS0_INS0_I4gridNS_9allocatorIS1_EEEENS2_IS4_EEEENS2_IS6_EEED1B7v160006Ev, symObjAddr: 0x28EC, symBinAddr: 0x100006AF8, symSize: 0xB4 }
  - { offsetInCU: 0x250A8, offset: 0x250A8, size: 0x8, addend: 0x0, symName: __ZNSt3__114basic_ifstreamIcNS_11char_traitsIcEEED1Ev, symObjAddr: 0x29A0, symBinAddr: 0x100006BAC, symSize: 0x58 }
  - { offsetInCU: 0x252BD, offset: 0x252BD, size: 0x8, addend: 0x0, symName: __ZNKSt3__16vectorINS0_I4gridNS_9allocatorIS1_EEEENS2_IS4_EEE20__throw_length_errorB7v160006Ev, symObjAddr: 0x2C40, symBinAddr: 0x100006E4C, symSize: 0x14 }
  - { offsetInCU: 0x252E7, offset: 0x252E7, size: 0x8, addend: 0x0, symName: __ZNSt3__130__uninitialized_allocator_copyB7v160006INS_9allocatorINS_6vectorI4gridNS1_IS3_EEEEEEPS5_S7_S7_EET2_RT_T0_T1_S8_, symObjAddr: 0x2C54, symBinAddr: 0x100006E60, symSize: 0x16C }
  - { offsetInCU: 0x252F2, offset: 0x252F2, size: 0x8, addend: 0x0, symName: __ZNSt3__16vectorINS0_I4gridNS_9allocatorIS1_EEEENS2_IS4_EEEC1ERKS6_.cold.1, symObjAddr: 0x3724, symBinAddr: 0x10000794C, symSize: 0x64 }
  - { offsetInCU: 0x2563A, offset: 0x2563A, size: 0x8, addend: 0x0, symName: __ZNSt12length_errorC1B7v160006EPKc, symObjAddr: 0x2A68, symBinAddr: 0x100006C74, symSize: 0x24 }
  - { offsetInCU: 0x258EF, offset: 0x258EF, size: 0x8, addend: 0x0, symName: __ZNSt3__128__exception_guard_exceptionsINS_29_AllocatorDestroyRangeReverseINS_9allocatorINS_6vectorI4gridNS2_IS4_EEEEEEPS6_EEED1B7v160006Ev, symObjAddr: 0x2DC0, symBinAddr: 0x100006FCC, symSize: 0x6C }
  - { offsetInCU: 0x25D9F, offset: 0x25D9F, size: 0x8, addend: 0x0, symName: __ZNKSt3__16vectorINS0_INS0_I4gridNS_9allocatorIS1_EEEENS2_IS4_EEEENS2_IS6_EEE20__throw_length_errorB7v160006Ev, symObjAddr: 0x308C, symBinAddr: 0x100007298, symSize: 0x14 }
  - { offsetInCU: 0x25DC9, offset: 0x25DC9, size: 0x8, addend: 0x0, symName: __ZNSt3__16vectorINS0_INS0_I4gridNS_9allocatorIS1_EEEENS2_IS4_EEEENS2_IS6_EEE21__push_back_slow_pathIRKS6_EEvOT_, symObjAddr: 0x30A0, symBinAddr: 0x1000072AC, symSize: 0x1F0 }
  - { offsetInCU: 0x25DD4, offset: 0x25DD4, size: 0x8, addend: 0x0, symName: __ZNSt3__114__split_bufferINS_6vectorINS1_I4gridNS_9allocatorIS2_EEEENS3_IS5_EEEERNS3_IS7_EEED1Ev, symObjAddr: 0x2FDC, symBinAddr: 0x1000071E8, symSize: 0xB0 }
  - { offsetInCU: 0x265E5, offset: 0x265E5, size: 0x8, addend: 0x0, symName: __ZNKSt3__112basic_stringIcNS_11char_traitsIcEENS_9allocatorIcEEE20__throw_length_errorB7v160006Ev, symObjAddr: 0x3588, symBinAddr: 0x100007794, symSize: 0x14 }
  - { offsetInCU: 0x2660F, offset: 0x2660F, size: 0x8, addend: 0x0, symName: __ZNSt3__17getlineB7v160006IcNS_11char_traitsIcEENS_9allocatorIcEEEERNS_13basic_istreamIT_T0_EES9_RNS_12basic_stringIS6_S7_T1_EES6_, symObjAddr: 0x359C, symBinAddr: 0x1000077A8, symSize: 0x188 }
...
